
7a9b3b24-3e2f-4d5f-912d-8b7c1355629a.elf：     文件格式 elf32-littlearm
7a9b3b24-3e2f-4d5f-912d-8b7c1355629a.elf
体系结构：armv8-a， 标志 0x00000150：
HAS_SYMS, DYNAMIC, D_PAGED
起始地址 0x000002cc

程序头：
0x70000001 off    0x0000f0a0 vaddr 0x0000e0a0 paddr 0x0000e0a0 align 2**2
         filesz 0x00000c88 memsz 0x00000c88 flags r--
    LOAD off    0x00001000 vaddr 0x00000000 paddr 0x00000000 align 2**12
         filesz 0x0000ee00 memsz 0x0000ee00 flags r-x
    LOAD off    0x00010000 vaddr 0x0000f000 paddr 0x0000f000 align 2**12
         filesz 0x000003bc memsz 0x0000bc20 flags rw-
 DYNAMIC off    0x00010000 vaddr 0x0000f000 paddr 0x0000f000 align 2**2
         filesz 0x00000088 memsz 0x00000088 flags rw-
   STACK off    0x00000000 vaddr 0x00000000 paddr 0x00000000 align 2**4
         filesz 0x00000000 memsz 0x00000000 flags rw-

动态节：
  HASH                 0x0000edd0
  GNU_HASH             0x0000dc50
  STRTAB               0x0000ed98
  SYMTAB               0x0000ed28
  STRSZ                0x00000036
  SYMENT               0x00000010
  DEBUG                0x00000000
  REL                  0x0000f0e4
  RELSZ                0x000001a8
  RELENT               0x00000008
  FLAGS_1              0x08000000
  RELCOUNT             0x00000021
私有标志 = 0x5000400： [Version5 EABI] [hard-float ABI]

节：
Idx Name          Size      VMA       LMA       File off  Algn
  0 .text         0000cb78  00000000  00000000  00001000  2**3
                  CONTENTS, ALLOC, LOAD, READONLY, CODE
  1 .rodata       000010d8  0000cb78  0000cb78  0000db78  2**2
                  CONTENTS, ALLOC, LOAD, READONLY, DATA
  2 .gnu.hash     00000030  0000dc50  0000dc50  0000ec50  2**2
                  CONTENTS, ALLOC, LOAD, READONLY, DATA
  3 .ta_head      00000020  0000dc80  0000dc80  0000ec80  2**3
                  CONTENTS, ALLOC, LOAD, READONLY, DATA
  4 .ARM.extab    00000400  0000dca0  0000dca0  0000eca0  2**2
                  CONTENTS, ALLOC, LOAD, READONLY, DATA
  5 .ARM.exidx    00000c88  0000e0a0  0000e0a0  0000f0a0  2**2
                  CONTENTS, ALLOC, LOAD, READONLY, DATA
  6 .dynsym       00000070  0000ed28  0000ed28  0000fd28  2**2
                  CONTENTS, ALLOC, LOAD, READONLY, DATA
  7 .dynstr       00000036  0000ed98  0000ed98  0000fd98  2**0
                  CONTENTS, ALLOC, LOAD, READONLY, DATA
  8 .hash         00000030  0000edd0  0000edd0  0000fdd0  2**2
                  CONTENTS, ALLOC, LOAD, READONLY, DATA
  9 .dynamic      00000088  0000f000  0000f000  00010000  2**2
                  CONTENTS, ALLOC, LOAD, DATA
 10 .got          0000005c  0000f088  0000f088  00010088  2**2
                  CONTENTS, ALLOC, LOAD, DATA
 11 .rel.got      000000a0  0000f1ec  0000f1ec  000101ec  2**2
                  CONTENTS, ALLOC, LOAD, READONLY, DATA
 12 .data         00000130  0000f28c  0000f28c  0001028c  2**2
                  CONTENTS, ALLOC, LOAD, DATA
 13 .bss          0000b864  0000f3bc  0000f3bc  000103bc  2**2
                  ALLOC
 14 .debug_info   00020a40  00000000  00000000  000103bc  2**0
                  CONTENTS, READONLY, DEBUGGING, OCTETS
 15 .debug_abbrev 00004e8a  00000000  00000000  00030dfc  2**0
                  CONTENTS, READONLY, DEBUGGING, OCTETS
 16 .debug_loclists 0001470b  00000000  00000000  00035c86  2**0
                  CONTENTS, READONLY, DEBUGGING, OCTETS
 17 .debug_aranges 00000688  00000000  00000000  0004a398  2**3
                  CONTENTS, READONLY, DEBUGGING, OCTETS
 18 .debug_rnglists 00000910  00000000  00000000  0004aa20  2**0
                  CONTENTS, READONLY, DEBUGGING, OCTETS
 19 .debug_macro  0001fa1c  00000000  00000000  0004b330  2**0
                  CONTENTS, READONLY, DEBUGGING, OCTETS
 20 .debug_line   0001313d  00000000  00000000  0006ad4c  2**0
                  CONTENTS, READONLY, DEBUGGING, OCTETS
 21 .debug_str    0001caf0  00000000  00000000  0007de89  2**0
                  CONTENTS, READONLY, DEBUGGING, OCTETS
 22 .comment      0000002b  00000000  00000000  0009a979  2**0
                  CONTENTS, READONLY
 23 .ARM.attributes 00000031  00000000  00000000  0009a9a4  2**0
                  CONTENTS, READONLY
 24 .debug_frame  00003560  00000000  00000000  0009a9d8  2**2
                  CONTENTS, READONLY, DEBUGGING, OCTETS
 25 .rel.dyn      00000108  0000f0e4  0000f0e4  000100e4  2**2
                  CONTENTS, ALLOC, LOAD, READONLY, DATA
 26 .debug_line_str 00000177  00000000  00000000  0009df38  2**0
                  CONTENTS, READONLY, DEBUGGING, OCTETS
SYMBOL TABLE:
00000000 l    d  .text	00000000 .text
0000cb78 l    d  .rodata	00000000 .rodata
0000dc50 l    d  .gnu.hash	00000000 .gnu.hash
0000dc80 l    d  .ta_head	00000000 .ta_head
0000dca0 l    d  .ARM.extab	00000000 .ARM.extab
0000e0a0 l    d  .ARM.exidx	00000000 .ARM.exidx
0000ed28 l    d  .dynsym	00000000 .dynsym
0000ed98 l    d  .dynstr	00000000 .dynstr
0000edd0 l    d  .hash	00000000 .hash
0000f000 l    d  .dynamic	00000000 .dynamic
0000f088 l    d  .got	00000000 .got
0000f1ec l    d  .rel.got	00000000 .rel.got
0000f28c l    d  .data	00000000 .data
0000f3bc l    d  .bss	00000000 .bss
00000000 l    d  .debug_info	00000000 .debug_info
00000000 l    d  .debug_abbrev	00000000 .debug_abbrev
00000000 l    d  .debug_loclists	00000000 .debug_loclists
00000000 l    d  .debug_aranges	00000000 .debug_aranges
00000000 l    d  .debug_rnglists	00000000 .debug_rnglists
00000000 l    d  .debug_macro	00000000 .debug_macro
00000000 l    d  .debug_line	00000000 .debug_line
00000000 l    d  .debug_str	00000000 .debug_str
00000000 l    d  .comment	00000000 .comment
00000000 l    d  .ARM.attributes	00000000 .ARM.attributes
00000000 l    d  .debug_frame	00000000 .debug_frame
0000f0e4 l    d  .rel.dyn	00000000 .rel.dyn
00000000 l    d  .debug_line_str	00000000 .debug_line_str
00000000 l    df *ABS*	00000000 optee_fusion_ta.c
00000000 l     F .text	00000080 ensure_key
0000f3bc l     O .bss	00000004 g_key
00000000 l    df *ABS*	00000000 ta_entry_a32.o
00000000 l    df *ABS*	00000000 stack_check.c
00000000 l    df *ABS*	00000000 memcpy.c
00000000 l    df *ABS*	00000000 tee_api.c
000003b8 l     F .text	00000050 copy_param
00000408 l     F .text	00000050 copy_gp11_param
00000458 l     F .text	00000070 check_mem_access_rights_params
000004c8 l     F .text	00000028 buf_overlaps_no_share_heap
000004f0 l     F .text	0000005c check_invoke_param
0000054c l     F .text	00000062 update_out_param
000005ae l     F .text	00000062 update_out_gp11_param
0000075c l     F .text	00000110 map_tmp_param
000173c4 l     O .bss	00000004 tee_api_instance_data
00000000 l    df *ABS*	00000000 tee_api_objects.c
00000000 l    df *ABS*	00000000 tee_api_operations.c
00002028 l     F .text	00000094 __tee_alg_get_main_alg
000020bc l     F .text	00000194 tee_buffer_update
00002250 l     F .text	000000c4 ae_update_helper
00002314 l     F .text	0000005c __tee_alg_get_class
00002370 l     F .text	0000002e reset_operation_state
0000239e l     F .text	00000126 set_operation_key2
0000d9f5 l     O .rodata	00000012 __func__.0
00000000 l    df *ABS*	00000000 tee_api_panic.c
00004c30 l     F .text	00000020 check_access
00004c54 l     F .text	00000006 check_res.part.0
00004c5a l     F .text	0000002e __utee_check_outbuf_annotation.localalias
00004cc0 l     F .text	00000018 __utee_check_attr_in_annotation.localalias
00000000 l    df *ABS*	00000000 tee_system_pta.c
00004cf0 l     F .text	00000050 invoke_system_pta
0000cba0 l     O .rodata	00000010 uuid.0
000173cc l     O .bss	00000004 sess.1
00000000 l    df *ABS*	00000000 user_ta_entry.c
00004e98 l     F .text	0000006a _get_fn_array
00004f02 l     F .text	0000006a _fini_iterate_phdr_cb
00004f6c l     F .text	0000001c ta_header_get_session
00004f88 l     F .text	00000058 to_utee_params
00004fe0 l     F .text	0000003a from_utee_params
0000501a l     F .text	00000046 _init_iterate_phdr_cb
0000515c l     F .text	0000006c ta_header_remove_session
000173d0 l     O .bss	00000004 _num_mod_init
000173d4 l     O .bss	00000001 init_done
0000f2fc l     O .data	00000008 ta_sessions
0000f304 l     O .data	00000008 __phdr_info_head
00000000 l    df *ABS*	00000000 utee_syscalls_a32.o
00000000 l    df *ABS*	00000000 abort.c
00000000 l    df *ABS*	00000000 assert.c
00000000 l    df *ABS*	00000000 tee_api_arith_mpi.c
000058cc l     F .text	00000020 api_panic
000058ec l     F .text	00000020 mpi_panic
0000590c l     F .text	00000050 get_mpi
0000595c l     F .text	0000003c copy_mpi_to_bigint
00005998 l     F .text	000000e0 bigint_binary
00005a78 l     F .text	00000010 mpi_is_odd
00005a88 l     F .text	00000016 rng_read
00005a9e l     F .text	00000496 mpi_egcd
0001740c l     O .bss	00003800 data.18
000062f8 l     F .text	00000148 bigint_binary_mod
0000da07 l     O .rodata	00000008 __func__.15
0000da0f l     O .rodata	0000000e __func__.11
0000da1d l     O .rodata	00000009 __func__.2
0000da26 l     O .rodata	00000012 __func__.17
0000da38 l     O .rodata	0000000f __func__.16
0000da47 l     O .rodata	0000001f __func__.14
0000da66 l     O .rodata	00000019 __func__.13
0000da7f l     O .rodata	00000012 __func__.7
0000da91 l     O .rodata	00000015 __func__.12
0000daa6 l     O .rodata	0000000e __func__.10
0000dab4 l     O .rodata	0000000e __func__.9
0000dac2 l     O .rodata	0000000e __func__.8
0000dad0 l     O .rodata	00000011 __func__.6
0000dae1 l     O .rodata	00000018 __func__.5
0000daf9 l     O .rodata	00000011 __func__.4
0000db0a l     O .rodata	0000001d __func__.3
0000db27 l     O .rodata	00000019 __func__.1
0000db40 l     O .rodata	00000015 __func__.0
00000000 l    df *ABS*	00000000 tee_api_property.c
0000717c l     F .text	00000050 propset_get
000071cc l     F .text	00000014 is_propset_pseudo_handle
000071e0 l     F .text	000000c0 propget_get_ext_prop
000072a0 l     F .text	00000158 propget_get_property
0000cbb0 l     O .rodata	00000004 __compound_literal.3
0000cbb4 l     O .rodata	00000004 __compound_literal.2
0000cbb8 l     O .rodata	00000004 __compound_literal.1
0000cbbc l     O .rodata	00000004 __compound_literal.0
00000000 l    df *ABS*	00000000 tcb.c
0000db55 l     O .rodata	00000010 __func__.0
0001ac0c l     O .bss	00000004 _tls_size
0001ac10 l     O .bss	00000004 _tcb
00000000 l    df *ABS*	00000000 base64.c
0000db65 l     O .rodata	00000041 base64_table
00000000 l    df *ABS*	00000000 bignum.c
00007f50 l     F .text	00000036 mpi_get_digit
00007f86 l     F .text	0000002e mpi_select
00007fb4 l     F .text	0000001e mpi_montmul.isra.0
00007fd2 l     F .text	0000005a mpi_montred
00008140 l     F .text	00000036 mbedtls_mpi_resize_clear
00008780 l     F .text	0000005e add_sub_mpi
000091c4 l     F .text	00000084 mpi_check_small_factors
00009848 l     F .text	000001c8 mpi_miller_rabin
0000cbc0 l     O .rodata	000002a0 small_prime
0000ce60 l     O .rodata	00000024 gcd_pairs
00000000 l    df *ABS*	00000000 bignum_core.c
00000000 l    df *ABS*	00000000 platform_util.c
0000f33c l     O .data	00000004 memset_func
00000000 l    df *ABS*	00000000 bget_malloc.c
0000ad88 l     F .text	00000020 myrand
0000ada8 l     F .text	0000000a _assert_trap
0000adb2 l     F .text	00000022 bget_buf_size.part.0
0000b3d8 l     F .text	00000078 stats.constprop.0
0000dba6 l     O .rodata	0000000e __func__.2
0000dbb4 l     O .rodata	00000005 __func__.9
0000dbb9 l     O .rodata	00000006 __func__.8
0000dbbf l     O .rodata	00000005 __func__.6
0000dbc4 l     O .rodata	00000006 __func__.7
0000dbca l     O .rodata	00000006 __func__.5
0000dbd0 l     O .rodata	00000007 __func__.4
0000dbd7 l     O .rodata	0000000f __func__.3
0000dbe6 l     O .rodata	00000003 CSWTCH.112
0000dbe9 l     O .rodata	00000014 __func__.1
0000dbfd l     O .rodata	00000013 __func__.0
0000f340 l     O .data	00000004 next
0001ac18 l     O .bss	00000004 bchain
0000f344 l     O .data	0000001c mypoolset
0000f360 l     O .data	0000005c malloc_ctx
00000000 l    df *ABS*	00000000 snprintf.c
00000000 l    df *ABS*	00000000 arm32_aeabi_ldivmod_a32.o
00000000 l    df *ABS*	00000000 arm32_aeabi_ldivmod.c
0000bb50 l     F .text	0000008a ul_div_qr
00000000 l    df *ABS*	00000000 snprintk.c
0000bdb0 l     F .text	0000079c kprintf.constprop.0
0000dc10 l     O .rodata	00000011 hexdigits
0000dc21 l     O .rodata	00000011 HEXDIGITS
00000000 l    df *ABS*	00000000 mempool.c
0000dc32 l     O .rodata	00000013 __func__.1
0000dc45 l     O .rodata	0000000b __func__.0
00000000 l    df *ABS*	00000000 user_ta_header.c
0000cb7c l     O .rodata	00000001 __compound_literal.6
0000cb80 l     O .rodata	00000004 __compound_literal.5
0000cb84 l     O .rodata	00000004 __compound_literal.4
0000cb88 l     O .rodata	00000004 __compound_literal.3
0000cb8c l     O .rodata	00000001 __compound_literal.2
0000cb8d l     O .rodata	00000001 __compound_literal.1
0000cb8e l     O .rodata	00000001 __compound_literal.0
00000000 l    df *ABS*	00000000 memset.c
00000000 l    df *ABS*	00000000 aeabi_unwind.c
00000000 l    df *ABS*	00000000 trace_ext.c
00000000 l    df *ABS*	00000000 constant_time.c
0000c65e l     F .text	00000010 mbedtls_ct_uchar_mask_of_range
00000000 l    df *ABS*	00000000 memmove.c
00000000 l    df *ABS*	00000000 strcmp.c
00000000 l    df *ABS*	00000000 strlen.c
00000000 l    df *ABS*	00000000 strlcpy.c
00000000 l    df *ABS*	00000000 trace.c
00000000 l    df *ABS*	00000000 consttime_memcmp.c
00000000 l    df *ABS*	00000000 memchr.c
00000000 l    df *ABS*	00000000 
0000f000 l     O *ABS*	00000000 _DYNAMIC
0000f088 l     O *ABS*	00000000 _GLOBAL_OFFSET_TABLE_
0000cb58 l     F .text	00000010 ___utee_cache_operation_from_thumb
0000cb68 l     F .text	00000010 ___utee_panic_from_thumb
0000c65a g     F .text	00000004 putchar
00006040 g     F .text	00000004 __GP11_TEE_BigIntConvertFromOctetString
000014f4 g     F .text	000000b8 TEE_PopulateTransientObject
0000a66c g     F .text	0000003c mbedtls_mpi_core_add_if
00003a00 g     F .text	00000004 __GP11_TEE_AEInit
00006fea g     F .text	00000004 TEE_BigIntConvertToFMM
00006a8c g     F .text	00000008 TEE_BigIntSquareMod
00006440 g     F .text	00000148 TEE_BigIntShiftRight
0000b8d2 g     F .text	0000007e raw_malloc_add_pool
00004e04 g     F .text	00000094 tee_invoke_supp_plugin
0000a944 g     F .text	0000005e mbedtls_mpi_core_fill_random
000080a4 g     F .text	0000009c mbedtls_mpi_grow
0000bc48 g     F .text	000000a8 __l_divmod
00003064 g     F .text	00000030 TEE_DigestUpdate
00007a1a g     F .text	000000c6 __GP11_TEE_GetPropertyName
00000db8 g     F .text	00000088 TEE_Realloc
0000a5d0 g     F .text	00000070 mbedtls_mpi_core_shift_r
00002f6e g     F .text	00000016 TEE_SetOperationKey2
0000386c g     F .text	0000006c __GP11_TEE_MACComputeFinal
00004cda g     F .text	00000016 __utee_check_inout_annotation
0000b714 g     F .text	00000008 raw_free
0000c64e g     F .text	00000008 printf
000066f0 g     F .text	00000010 TEE_BigIntAbs
000034c4 g     F .text	0000006c __GP11_TEE_CipherUpdate
00001664 g     F .text	00000022 TEE_InitRefAttribute
0000541c g     F .text	00000014 _utee_log
00000a18 g     F .text	000000fc TEE_InvokeTACommand
000016ca g     F .text	00000022 __GP11_TEE_InitValueAttribute
00004c5a g     F .text	0000002e __utee_check_outbuf_annotation
0000a56c g     F .text	00000064 mbedtls_mpi_core_write_be
0000803a g     F .text	00000026 mbedtls_mpi_init_mempool
000056b8 g     F .text	00000014 _utee_cryp_random_number_generate
0000844a g     F .text	0000000c mbedtls_mpi_write_binary
00003bac g     F .text	00000160 TEE_AEEncryptFinal
0000bd54 g     F .text	0000000e vsnprintk
00008848 g     F .text	00000060 mbedtls_mpi_sub_int
00004258 g     F .text	000000f4 __GP11_TEE_AsymmetricDecrypt
0000ca64 g     F .text	00000034 memmove
0000babc g     F .text	00000054 snprintf
0000629c g     F .text	0000005c TEE_BigIntCmpS32
00000c24 g     F .text	00000004 __GP11_TEE_MemMove
0000f2f8 g     O .data	00000004 __stack_chk_guard
0000c92c g     F .text	00000138 mbedtls_ct_rsaes_pkcs1_v15_unpadding
000016a8 g     F .text	00000022 TEE_InitValueAttribute
00008176 g     F .text	000000b6 mbedtls_mpi_shrink
0000c646 g     F .text	00000002 __aeabi_unwind_cpp_pr0
00000c34 g     F .text	00000004 __GP11_TEE_MemFill
00006700 g     F .text	00000020 TEE_BigIntAdd
00005618 g     F .text	00000014 _utee_cryp_obj_restrict_usage
00001686 g     F .text	00000022 __GP11_TEE_InitRefAttribute
0000cb94 g     O .rodata	00000004 ta_heap_size
00001480 g     F .text	00000074 TEE_ResetTransientObject
00005740 g     F .text	00000018 _utee_asymm_operate
00007dbc g     F .text	0000000e _base64_enc_len
00008a32 g     F .text	0000014e mbedtls_mpi_read_string
000018a0 g     F .text	0000008c __GP11_TEE_GenerateKey
00003324 g     F .text	00000074 TEE_CipherInit
0000a6e4 g     F .text	00000174 mbedtls_mpi_core_mla
00006740 g     F .text	000000a4 TEE_BigIntNeg
000057dc g     F .text	00000014 _utee_storage_free_enum
00000000 g       .text	00000000 __text_start
00007b40 g     F .text	000000a0 TEE_GetNextProperty
00001bf0 g     F .text	0000002c TEE_StartPersistentObjectEnumerator
000084f8 g     F .text	00000012 mbedtls_mpi_shift_r
0000baa8 g     F .text	00000014 malloc_buffer_overlaps_heap
00005580 g     F .text	00000014 _utee_hash_init
00006a54 g     F .text	0000001c TEE_BigIntSubMod
00009e08 g     F .text	00000244 mbedtls_mpi_gen_prime
00007848 g     F .text	00000064 TEE_GetPropertyAsBinaryBlock
0000832c g     F .text	00000020 mbedtls_mpi_get_bit
0000a9a2 g     F .text	00000082 mbedtls_mpi_core_random
0000cb90 g     O .rodata	00000004 __ta_no_share_heap_size
00008412 g     F .text	0000002c mbedtls_mpi_read_binary
00003990 g     F .text	00000070 TEE_AEInit
0000caee g     F .text	00000002 trace_printf
00009256 g     F .text	00000012 mbedtls_mpi_montmul
00005890 g     F .text	00000014 _utee_cache_operation
000002e0 g     F .text	000000d6 memcpy
0000aa3a g     F .text	00000162 mbedtls_mpi_core_exp_mod
00006fee g     F .text	0000009a TEE_BigIntConvertFromFMM
00004c50 g     F .text	00000004 TEE_Panic
0000bb38 g     F .text	00000018 __aeabi_uldivmod
00002fa6 g     F .text	000000be TEE_CopyOperation
0000c656 g     F .text	00000004 puts
00007088 g     F .text	000000f4 TEE_BigIntComputeFMM
0000ba70 g     F .text	00000010 malloc_get_stats
00000cd0 g     F .text	00000016 TEE_GetREETime
0000ba58 g     F .text	00000018 raw_malloc_get_stats
00001b60 g     F .text	00000068 TEE_AllocatePersistentObjectEnumerator
0000f28c g     O .data	0000006c ta_props
00003f48 g     F .text	00000110 TEE_AsymmetricEncrypt
00000d78 g     F .text	00000004 __GP11_TEE_Malloc
00000948 g     F .text	000000d0 __GP11_TEE_OpenTASession
00004c8a g     F .text	0000001c __utee_check_instring_annotation
0000b812 g     F .text	00000016 malloc
0000c628 g     F .text	0000000a __ta_entry_c
00007a0c g     F .text	00000004 TEE_FreePropertyEnumerator
0000c690 g     F .text	00000008 mbedtls_ct_mpi_uint_mask
00003398 g     F .text	00000004 __GP11_TEE_CipherInit
0000bb10 g     F .text	0000000e vsnprintf
00001814 g     F .text	0000008c TEE_GenerateKey
000173c0 g     O .bss	00000004 trace_level
000019d0 g     F .text	00000004 __GP11_TEE_OpenPersistentObject
00006230 g     F .text	0000006c TEE_BigIntCmp
0000cb78 g     O .rodata	00000004 ta_num_props
0000b260 g     F .text	00000080 bgetr
00005770 g     F .text	00000018 _utee_storage_obj_open
00000c2c g     F .text	00000004 __GP11_TEE_MemCompare
0000c618 g     F .text	00000010 mempool_free
0000339c g     F .text	00000128 TEE_CipherUpdate
00005594 g     F .text	00000014 _utee_hash_update
00006044 g     F .text	0000008c TEE_BigIntConvertToOctetString
00002cf8 g     F .text	00000108 TEE_GetOperationInfoMultiple
000083d2 g     F .text	00000008 mbedtls_mpi_bitlen
0000658c g     F .text	00000060 TEE_BigIntGetBit
0000cb98 g     O .rodata	00000003 trace_ext_prefix
00005818 g     F .text	00000014 _utee_storage_next_enum
0000b702 g     F .text	00000012 raw_malloc
0000aff0 g     F .text	0000005c bgetz
0000c698 g     F .text	0000000c mbedtls_ct_size_bool_eq
00000c14 g     F .text	0000000c TEE_GetInstanceData
00000c4e g     F .text	0000001e TEE_Wait
000088a8 g     F .text	00000128 mbedtls_mpi_mul_mpi
0000c64a g     F .text	00000002 __aeabi_unwind_cpp_pr2
00006588 g     F .text	00000004 __GP11_TEE_BigIntShiftRight
0000ad48 g     F .text	00000014 mbedtls_put_unaligned_uint64
00000e4a g     F .text	00000006 TEE_CacheFlush
00000084 g     F .text	00000018 TA_DestroyEntryPoint
0000802c g     F .text	0000000e mbedtls_mpi_init
000057a0 g     F .text	00000014 _utee_storage_obj_del
0000839a g     F .text	00000038 mbedtls_mpi_lsb
0000369c g     F .text	00000070 __GP11_TEE_CipherDoFinal
000058bc g     F .text	00000002 _assert_log
00003b00 g     F .text	000000ac __GP11_TEE_AEUpdate
00005558 g     F .text	00000014 _utee_cryp_state_copy
00006fe2 g     F .text	00000004 TEE_BigIntFMMContextSizeInU32
00004dac g     F .text	00000058 tee_unmap
000038d8 g     F .text	000000b4 TEE_MACCompareFinal
0000c6b2 g     F .text	00000012 mbedtls_ct_uint_if
00001b22 g     F .text	0000003a TEE_RenamePersistentObject
00003098 g     F .text	000000f4 TEE_DigestDoFinal
000015ac g     F .text	000000b8 __GP11_TEE_PopulateTransientObject
00005f34 g     F .text	00000044 _TEE_MathAPI_Init
0000ad5c g     F .text	00000016 mbedtls_xor
00007be0 g     F .text	0000013c __utee_tcb_init
000087de g     F .text	00000004 mbedtls_mpi_add_mpi
000058a4 g     F .text	00000018 abort
00009a10 g     F .text	0000003e mbedtls_mpi_random
000002d0 g     F .text	00000010 __stack_chk_fail
00004caa g     F .text	00000016 __utee_check_out_annotation
0000f3c0 g     O .bss	00008000 ta_heap
00006a94 g     F .text	000000f4 TEE_BigIntInvMod
00003094 g     F .text	00000004 __GP11_TEE_DigestUpdate
00005060 g     F .text	000000ec __utee_call_elf_init_fn
00000f3c g     F .text	00000090 __GP11_TEE_GetObjectInfo
000000a0 g     F .text	00000002 TA_CloseSessionEntryPoint
00005488 g     F .text	00000014 _utee_close_ta_session
00006fce g     F .text	00000004 __GP11_TEE_BigIntInitFMMContext
00004148 g     F .text	00000110 TEE_AsymmetricDecrypt
00001054 g     F .text	00000088 __GP11_TEE_GetObjectInfo1
0000192c g     F .text	000000a4 TEE_OpenPersistentObject
0000abbe g     F .text	00000016 mbedtls_mpi_core_check_zero_ct
000087e2 g     F .text	00000006 mbedtls_mpi_sub_mpi
0000caf2 g     F .text	00000048 consttime_memcmp
00005408 g     F .text	00000014 _utee_return
00005430 g     F .text	00000014 __utee_panic
0000c66e g     F .text	0000001a mbedtls_ct_memcmp
00007d1c g     F .text	00000018 __tls_get_addr
000000a2 g     F .text	0000022a TA_InvokeCommandEntryPoint
0000514c g     F .text	00000010 __utee_call_elf_fini_fn
0000b8ac g     F .text	00000010 free_wipe
0000c5e8 g     F .text	0000000c mempool_alloc
000053f4 g     F .text	00000014 _utee_panic
0000b8c0 g     F .text	00000012 raw_malloc_init_ctx
0000c5f4 g     F .text	00000024 mempool_calloc
0000587c g     F .text	00000014 _utee_cryp_obj_generate_key
00005854 g     F .text	00000014 _utee_storage_obj_trunc
000017a4 g     F .text	00000070 TEE_CopyObjectAttributes
0000f30c g     O .data	00000030 tee_props
000054dc g     F .text	00000014 _utee_unmask_cancellation
000079dc g     F .text	00000008 TEE_ResetPropertyEnumerator
0000b828 g     F .text	00000020 calloc
00000ce6 g     F .text	00000092 TEE_Malloc
00000714 g     F .text	00000048 TEE_CheckMemoryAccessRights
0000ac9e g     F .text	0000004a mbedtls_get_unaligned_uint32
0000bbda g     F .text	0000006e __ul_divmod
000078ac g     F .text	00000098 TEE_GetPropertyAsUUID
00005444 g     F .text	00000018 _utee_get_property
0000318c g     F .text	0000006c __GP11_TEE_DigestDoFinal
00006644 g     F .text	00000080 TEE_BigIntSetBit
000082f4 g     F .text	00000038 mbedtls_mpi_lset
00002f84 g     F .text	00000022 __GP11_TEE_SetOperationKey2
00001dcc g     F .text	0000008c TEE_ReadObjectData
0000116c g     F .text	000000c0 TEE_GetObjectBufferAttribute
0000009c g     F .text	00000004 TA_OpenSessionEntryPoint
0000ab9c g     F .text	00000022 mbedtls_mpi_core_sub_int
000024c4 g     F .text	00000024 TEE_FreeOperation
00007d34 g     F .text	00000088 dl_iterate_phdr
0001ac20 g       .bss	00000000 __ftrace_buf_end
00017408 g     O .bss	00000004 ta_param_types
00008f00 g     F .text	00000060 mbedtls_mpi_div_int
00000e58 g     F .text	0000002a __utee_from_attr
0000a508 g     F .text	00000064 mbedtls_mpi_core_write_le
00009d6c g     F .text	0000009c mbedtls_mpi_is_prime_ext
00006f54 g     F .text	00000070 TEE_BigIntIsProbablePrime
0000ace8 g     F .text	00000014 mbedtls_put_unaligned_uint32
000089d0 g     F .text	00000062 mbedtls_mpi_mul_int
00001ae6 g     F .text	00000026 TEE_CloseAndDeletePersistentObject1
0000926c g     F .text	0000047c mbedtls_mpi_exp_mod
0000c79e g     F .text	0000005e mbedtls_mpi_safe_cond_assign
000073f8 g     F .text	0000018c TEE_GetPropertyAsString
0000c89a g     F .text	00000092 mbedtls_mpi_lt_mpi_ct
00003d98 g     F .text	00000138 TEE_AEDecryptFinal
00005f78 g     F .text	00000038 TEE_BigIntInit
000060d0 g     F .text	0000004c __GP11_TEE_BigIntConvertToOctetString
000066c4 g     F .text	0000002c TEE_BigIntAssign
00004ca6 g     F .text	00000002 __utee_check_outstring_annotation
00000c20 g     F .text	00000004 TEE_MemMove
0000ad72 g     F .text	00000016 mbedtls_platform_zeroize
00005fb4 g     F .text	0000008c TEE_BigIntConvertFromOctetString
00005728 g     F .text	00000018 _utee_authenc_dec_final
0000850a g     F .text	00000062 mbedtls_mpi_cmp_abs
0000582c g     F .text	00000014 _utee_storage_obj_read
0000370c g     F .text	00000056 TEE_MACInit
0000434c g     F .text	000000ec TEE_AsymmetricSignDigest
0000cb3a g     F .text	0000001c memchr
00000674 g     F .text	00000050 TEE_UnmaskCancellation
00000eac g     F .text	00000090 TEE_GetObjectInfo
0000a04c g     F .text	00000334 mbedtls_mpi_self_test
00004c88 g     F .text	00000002 __utee_check_gp11_outbuf_annotation
00005868 g     F .text	00000014 _utee_storage_obj_seek
00003a96 g     F .text	0000006a TEE_AEUpdate
0000140c g     F .text	00000074 TEE_FreeTransientObject
0000a438 g     F .text	0000003c mbedtls_mpi_core_cond_swap
000054c8 g     F .text	00000014 _utee_check_access_rights
0000a4be g     F .text	0000004a mbedtls_mpi_core_read_be
00000b14 g     F .text	000000f0 __GP11_TEE_InvokeTACommand
000085ee g     F .text	00000062 mbedtls_mpi_cmp_int
00007e8c g     F .text	000000c4 _base64_dec
00002cb4 g     F .text	00000014 __GP11_TEE_FreeOperation
000057f0 g     F .text	00000014 _utee_storage_reset_enum
0000c740 g     F .text	0000005e mbedtls_ct_base64_dec_value
0000b450 g     F .text	00000250 bget_main_test
000048e2 g     F .text	0000004a rand
00004cc0 g     F .text	00000018 __utee_check_attr_in_annotation
000056f8 g     F .text	00000018 _utee_authenc_update_payload
00002cc8 g     F .text	00000030 TEE_GetOperationInfo
000069e8 g     F .text	00000050 TEE_BigIntMod
00008fc4 g     F .text	0000006c mbedtls_mpi_mod_int
00004438 g     F .text	000000ec __GP11_TEE_AsymmetricSignDigest
000083e6 g     F .text	0000002c mbedtls_mpi_read_binary_le
000068c6 g     F .text	00000122 TEE_BigIntDiv
00005640 g     F .text	00000014 _utee_cryp_obj_alloc
0001ac20 g       .bss	00000000 __ftrace_buf_start
0000cabe g     F .text	0000002a strlcpy
0000c6e8 g     F .text	00000058 mbedtls_ct_base64_enc_char
0000822c g     F .text	00000068 mbedtls_mpi_copy
0000a380 g     F .text	0000001e mbedtls_mpi_core_clz
0000492c g     F .text	00000304 TEE_IsAlgorithmSupported
0000b6a0 g     F .text	00000014 malloc_reset_stats
00007944 g     F .text	00000098 TEE_GetPropertyAsIdentity
0000c54c g     F .text	00000016 __vsprintf
00007714 g     F .text	00000098 TEE_GetPropertyAsU64
0000552c g     F .text	00000014 _utee_set_ta_time
0000549c g     F .text	00000018 _utee_invoke_ta_command
0000ac88 g     F .text	00000016 mbedtls_put_unaligned_uint16
000010dc g     F .text	00000020 TEE_RestrictObjectUsage1
0000b848 g     F .text	00000020 realloc
00008294 g     F .text	00000060 mbedtls_mpi_swap
0000c564 g     F .text	00000084 mempool_alloc_pool
000067e4 g     F .text	000000dc TEE_BigIntMul
00002e60 g     F .text	00000020 TEE_ResetOperation
0000b8bc g     F .text	00000004 raw_malloc_get_ctx_size
00008456 g     F .text	000000a2 mbedtls_mpi_shift_l
0000856c g     F .text	00000082 mbedtls_mpi_cmp_mpi
00000c30 g     F .text	00000004 TEE_MemFill
0000ba80 g     F .text	00000014 malloc_add_pool
00003766 g     F .text	0000004e TEE_MACUpdate
0000caea g     F .text	00000004 trace_get_level
00008650 g     F .text	00000090 mbedtls_mpi_add_abs
000010fc g     F .text	00000070 TEE_RestrictObjectUsage
00006fd6 g     F .text	00000008 TEE_BigIntFMMSizeInU32
000075e8 g     F .text	00000094 TEE_GetPropertyAsBool
0000b76c g     F .text	000000a6 raw_realloc
00006fc4 g     F .text	00000004 TEE_BigIntInitFMM
0000136c g     F .text	00000014 TEE_CloseObject
000055c0 g     F .text	00000014 _utee_cipher_init
000051c8 g     F .text	0000022c __utee_entry
0000767c g     F .text	00000098 TEE_GetPropertyAsU32
0000cb78 g       .text	00000000 __text_end
00006b88 g     F .text	000000b0 TEE_BigIntRelativePrime
00008f60 g     F .text	00000064 mbedtls_mpi_mod_mpi
0000c85a g     F .text	00000040 mbedtls_mpi_core_lt_ct
00005604 g     F .text	00000014 _utee_cryp_obj_get_info
0000a6a8 g     F .text	0000003c mbedtls_mpi_core_sub
0000b2e0 g     F .text	00000098 bpool
000079e4 g     F .text	00000028 TEE_AllocatePropertyEnumerator
00005540 g     F .text	00000018 _utee_cryp_state_alloc
00000624 g     F .text	00000050 TEE_GetCancellationFlag
00001aa8 g     F .text	0000003e __GP11_TEE_CreatePersistentObject
0000ac3c g     F .text	0000004c mbedtls_get_unaligned_uint16
000096e8 g     F .text	00000130 mbedtls_mpi_gcd
00000ca8 g     F .text	00000028 TEE_SetTAPersistentTime
0000843e g     F .text	0000000c mbedtls_mpi_write_binary_le
0000c636 g     F .text	00000010 memset
0000b6b4 g     F .text	0000004e raw_memalign
00000c6c g     F .text	0000003c TEE_GetTAPersistentTime
00002f50 g     F .text	0000001e __GP11_TEE_SetOperationKey
00003d0c g     F .text	0000008c __GP11_TEE_AEEncryptFinal
0000acfc g     F .text	0000004c mbedtls_get_unaligned_uint64
0000caf0 g     F .text	00000002 dhex_dump
0000a3c6 g     F .text	00000026 mbedtls_mpi_core_bigendian_to_host
000019d4 g     F .text	000000d4 TEE_CreatePersistentObject
000006c4 g     F .text	00000050 TEE_MaskCancellation
00003a04 g     F .text	0000004c TEE_AEUpdateAAD
00001f00 g     F .text	00000038 TEE_TruncateObjectData
0000562c g     F .text	00000014 _utee_cryp_obj_get_attr
00000fcc g     F .text	00000088 TEE_GetObjectInfo1
0000cae8 g     F .text	00000002 trace_set_level
000055ec g     F .text	00000018 _utee_cipher_final
0000abd4 g     F .text	00000016 mbedtls_mpi_core_to_mont_rep
00001290 g     F .text	000000dc TEE_GetObjectValueAttribute
00002e80 g     F .text	000000d0 TEE_SetOperationKey
0000c6a4 g     F .text	0000000e mbedtls_ct_mpi_uint_lt
0000122c g     F .text	00000064 __GP11_TEE_GetObjectBufferAttribute
0000556c g     F .text	00000014 _utee_cryp_state_free
0000ca98 g     F .text	00000016 strcmp
00005470 g     F .text	00000018 _utee_open_ta_session
000061a0 g     F .text	00000090 TEE_BigIntConvertToS32
00006720 g     F .text	00000020 TEE_BigIntSub
00002014 g     F .text	00000012 __GP11_TEE_SeekObjectData
0000c632 g     F .text	00000004 tahead_get_trace_level
00005804 g     F .text	00000014 _utee_storage_start_enum
00001f3c g     F .text	000000d8 TEE_SeekObjectData
00004d40 g     F .text	0000006c tee_map_zi
00001f38 g     F .text	00000004 __GP11_TEE_TruncateObjectData
00009268 g     F .text	00000004 mbedtls_mpi_montred
0000b868 g     F .text	00000020 memalign
0000c688 g     F .text	00000008 mbedtls_ct_uint_mask
00003530 g     F .text	0000016c TEE_CipherDoFinal
00005fb0 g     F .text	00000004 __GP11_TEE_BigIntInit
0000611c g     F .text	00000084 TEE_BigIntConvertFromS32
000087e8 g     F .text	00000060 mbedtls_mpi_add_int
00005710 g     F .text	00000018 _utee_authenc_enc_final
0000ba94 g     F .text	00000014 malloc_buffer_is_within_alloced
00005654 g     F .text	00000014 _utee_cryp_obj_close
000048de g     F .text	00000004 __GP11_TEE_GenerateRandom
00006fcc g     F .text	00000002 TEE_BigIntInitFMMContext
000054f0 g     F .text	00000014 _utee_mask_cancellation
000173e4 g     O .bss	00000004 __ta_no_share_malloc_ctx
000057b4 g     F .text	00000014 _utee_storage_obj_rename
00001cf4 g     F .text	000000d8 __GP11_TEE_GetNextPersistentObject
00001ebc g     F .text	00000040 TEE_WriteObjectData
00001bdc g     F .text	00000014 TEE_ResetPersistentObjectEnumerator
00000c04 g     F .text	00000004 __GP11_TEE_CheckMemoryAccessRights
000068c0 g     F .text	00000006 TEE_BigIntSquare
00005840 g     F .text	00000014 _utee_storage_obj_write
0000a39e g     F .text	00000028 mbedtls_mpi_core_bitlen
00000080 g     F .text	00000004 TA_CreateEntryPoint
000002cc g     F .text	00000004 __ta_entry
0000f3c0 g     O .bss	00000000 __ta_no_share_heap
000056e4 g     F .text	00000014 _utee_authenc_update_aad
00009248 g     F .text	0000000e mbedtls_mpi_montg_init
0000bd62 g     F .text	0000004e snprintk
000065ec g     F .text	00000058 TEE_BigIntGetBitCount
00005690 g     F .text	00000014 _utee_cryp_obj_copy
00003a50 g     F .text	00000046 __GP11_TEE_AEUpdateAAD
00006a70 g     F .text	0000001c TEE_BigIntMulMod
00009a4e g     F .text	0000031e mbedtls_mpi_inv_mod
00004cd8 g     F .text	00000002 __utee_check_gp11_attr_in_annotation
000046dc g     F .text	000000f8 TEE_DeriveKey
000173e8 g     O .bss	00000020 ta_params
00008b80 g     F .text	00000380 mbedtls_mpi_div_mpi
00004ca8 g     F .text	00000002 __utee_check_gp11_outstring_annotation
000083da g     F .text	0000000c mbedtls_mpi_size
0000add4 g     F .text	0000021c bget
00001e58 g     F .text	00000064 __GP11_TEE_ReadObjectData
000013f4 g     F .text	00000018 TEE_AllocateTransientObject
000037b4 g     F .text	00000004 __GP11_TEE_MACUpdate
00006fe6 g     F .text	00000004 __GP11_TEE_BigIntFMMContextSizeInU32
00007a10 g     F .text	0000000a TEE_StartPropertyEnumerator
00005504 g     F .text	00000014 _utee_wait
0000834c g     F .text	0000004e mbedtls_mpi_set_bit
0000a3ec g     F .text	00000030 mbedtls_mpi_core_uint_le_mpi
00000d7c g     F .text	0000003c TEE_Free
00000e50 g     F .text	00000006 TEE_CacheInvalidate
000058be g     F .text	0000000e _assert_break
0000aa24 g     F .text	00000016 mbedtls_mpi_core_exp_mod_working_limbs
00006a38 g     F .text	0000001c TEE_BigIntAddMod
0000c6c4 g     F .text	00000024 mbedtls_ct_mpi_uint_cond_assign
00006fc8 g     F .text	00000004 __GP11_TEE_BigIntInitFMM
00005518 g     F .text	00000014 _utee_get_time
0000a640 g     F .text	0000002c mbedtls_mpi_core_add
00007ae0 g     F .text	00000060 TEE_GetPropertyName
00000e40 g     F .text	00000004 __GP11_TEE_Realloc
000024e8 g     F .text	000007cc TEE_AllocateOperation
0000567c g     F .text	00000014 _utee_cryp_obj_populate
0000a474 g     F .text	0000004a mbedtls_mpi_core_read_le
00002e00 g     F .text	00000060 __GP11_TEE_GetOperationInfoMultiple
00000e82 g     F .text	0000002a __utee_from_gp11_attr
000048cc g     F .text	00000012 TEE_GenerateRandom
000031f8 g     F .text	0000012c TEE_DigestExtract
00000c28 g     F .text	00000004 TEE_MemCompare
000055d4 g     F .text	00000018 _utee_cipher_update
0000bcf0 g     F .text	00000064 __vsnprintf
000173d8 g     O .bss	0000000c __elf_phdr_info
00001bc8 g     F .text	00000014 TEE_FreePersistentObjectEnumerator
0000086c g     F .text	000000dc TEE_OpenTASession
000047d4 g     F .text	000000f8 __GP11_TEE_DeriveKey
0000abea g     F .text	00000052 mbedtls_mpi_core_from_mont_rep
00003ed0 g     F .text	00000078 __GP11_TEE_AEDecryptFinal
0000c64c g     F .text	00000002 trace_ext_puts
00007584 g     F .text	00000064 __GP11_TEE_GetPropertyAsString
0000b9a0 g     F .text	000000b8 raw_malloc_buffer_is_within_alloced
0000b950 g     F .text	00000050 raw_malloc_buffer_overlaps_heap
00001b0c g     F .text	00000016 TEE_CloseAndDeletePersistentObject
000056a4 g     F .text	00000014 _utee_cryp_derive_key
00008060 g     F .text	00000044 mbedtls_mpi_free
00003762 g     F .text	00000004 __GP11_TEE_MACInit
00004600 g     F .text	000000dc __GP11_TEE_AsymmetricVerifyDigest
00005668 g     F .text	00000014 _utee_cryp_obj_reset
00000e44 g     F .text	00000006 TEE_CacheClean
0000545c g     F .text	00000014 _utee_get_property_name_to_index
0000a87a g     F .text	00000096 mbedtls_mpi_core_montmul
0000b71c g     F .text	00000050 raw_calloc
00007dca g     F .text	000000c2 _base64_enc
0000c7fc g     F .text	0000005e mbedtls_mpi_safe_cond_swap
000056cc g     F .text	00000018 _utee_authenc_init
000016ec g     F .text	000000b8 TEE_CopyObjectAttributes1
00001b5c g     F .text	00000004 __GP11_TEE_RenamePersistentObject
0000caae g     F .text	00000010 strlen
00006d8c g     F .text	000001c8 TEE_BigIntComputeExtendedGcd
0000c648 g     F .text	00000002 __aeabi_unwind_cpp_pr1
000057c8 g     F .text	00000014 _utee_storage_alloc_enum
00006c38 g     F .text	00000154 TEE_BigIntExpMod
00000c38 g     F .text	00000016 TEE_GetSystemTime
00005758 g     F .text	00000018 _utee_asymm_verify
0000dc80 g     O .ta_head	00000020 ta_head
0000b04c g     F .text	00000214 brel
000077ac g     F .text	0000009c __GP11_TEE_GetPropertyAsBinaryBlock
000086e0 g     F .text	000000a0 mbedtls_mpi_sub_abs
00009818 g     F .text	00000030 mbedtls_mpi_fill_random
00001380 g     F .text	00000074 __GP11_TEE_AllocateTransientObject
00000c08 g     F .text	0000000c TEE_SetInstanceData
00004058 g     F .text	000000f0 __GP11_TEE_AsymmetricEncrypt
000054b4 g     F .text	00000014 _utee_get_cancellation_flag
0000a41c g     F .text	0000001c mbedtls_mpi_core_cond_assign
0000bb20 g     F .text	00000018 __aeabi_ldivmod
00009030 g     F .text	00000194 mbedtls_mpi_write_string
0000b888 g     F .text	00000012 aligned_alloc
0000a858 g     F .text	00000022 mbedtls_mpi_core_montmul_init
00001c1c g     F .text	000000d8 TEE_GetNextPersistentObject
00006fd2 g     F .text	00000004 TEE_BigIntInitFMMContext1
0000398c g     F .text	00000004 __GP11_TEE_MACCompareFinal
00001efc g     F .text	00000004 __GP11_TEE_WriteObjectData
0000a910 g     F .text	00000034 mbedtls_mpi_core_get_mont_r2_unsafe
00000610 g     F .text	00000014 TEE_CloseTASession
00004524 g     F .text	000000dc TEE_AsymmetricVerifyDigest
00005788 g     F .text	00000018 _utee_storage_obj_create
00006fde g     F .text	00000004 __GP11_TEE_BigIntFMMSizeInU32
0000b89a g     F .text	00000012 free
0000b378 g     F .text	00000060 bstats
000037b8 g     F .text	000000b4 TEE_MACComputeFinal
0001ac14 g     O .bss	00000004 mbedtls_mpi_mempool
000055a8 g     F .text	00000018 _utee_hash_final



Disassembly of section .text:

00000000 <ensure_key>:
ensure_key():
/home/ldx1/dev/tee-fusion-repo/optee/ta/optee_fusion_ta.c:8
       0:	4a1b      	ldr	r2, [pc, #108]	@ (70 <ensure_key+0x70>)
       2:	4b1c      	ldr	r3, [pc, #112]	@ (74 <ensure_key+0x74>)
       4:	b530      	push	{r4, r5, lr}
       6:	447a      	add	r2, pc
/home/ldx1/dev/tee-fusion-repo/optee/ta/optee_fusion_ta.c:9
       8:	4d1b      	ldr	r5, [pc, #108]	@ (78 <ensure_key+0x78>)
/home/ldx1/dev/tee-fusion-repo/optee/ta/optee_fusion_ta.c:8
       a:	b085      	sub	sp, #20
/home/ldx1/dev/tee-fusion-repo/optee/ta/optee_fusion_ta.c:9
       c:	447d      	add	r5, pc
/home/ldx1/dev/tee-fusion-repo/optee/ta/optee_fusion_ta.c:8
       e:	58d3      	ldr	r3, [r2, r3]
      10:	681b      	ldr	r3, [r3, #0]
      12:	9303      	str	r3, [sp, #12]
      14:	f04f 0300 	mov.w	r3, #0
/home/ldx1/dev/tee-fusion-repo/optee/ta/optee_fusion_ta.c:9
      18:	682b      	ldr	r3, [r5, #0]
      1a:	bb03      	cbnz	r3, 5e <ensure_key+0x5e>
/home/ldx1/dev/tee-fusion-repo/optee/ta/optee_fusion_ta.c:10
      1c:	4812      	ldr	r0, [pc, #72]	@ (68 <ensure_key+0x68>)
      1e:	462a      	mov	r2, r5
      20:	f44f 7180 	mov.w	r1, #256	@ 0x100
      24:	f001 f9e6 	bl	13f4 <TEE_AllocateTransientObject>
/home/ldx1/dev/tee-fusion-repo/optee/ta/optee_fusion_ta.c:11
      28:	b968      	cbnz	r0, 46 <ensure_key+0x46>
/home/ldx1/dev/tee-fusion-repo/optee/ta/optee_fusion_ta.c:13
      2a:	466c      	mov	r4, sp
      2c:	4603      	mov	r3, r0
      2e:	490f      	ldr	r1, [pc, #60]	@ (6c <ensure_key+0x6c>)
      30:	2203      	movs	r2, #3
      32:	4620      	mov	r0, r4
      34:	f001 fb38 	bl	16a8 <TEE_InitValueAttribute>
/home/ldx1/dev/tee-fusion-repo/optee/ta/optee_fusion_ta.c:14
      38:	6828      	ldr	r0, [r5, #0]
      3a:	2301      	movs	r3, #1
      3c:	4622      	mov	r2, r4
      3e:	f44f 7180 	mov.w	r1, #256	@ 0x100
      42:	f001 fbe7 	bl	1814 <TEE_GenerateKey>
/home/ldx1/dev/tee-fusion-repo/optee/ta/optee_fusion_ta.c:8
      46:	4a0d      	ldr	r2, [pc, #52]	@ (7c <ensure_key+0x7c>)
/home/ldx1/dev/tee-fusion-repo/optee/ta/optee_fusion_ta.c:16
      48:	4b0a      	ldr	r3, [pc, #40]	@ (74 <ensure_key+0x74>)
/home/ldx1/dev/tee-fusion-repo/optee/ta/optee_fusion_ta.c:8
      4a:	447a      	add	r2, pc
/home/ldx1/dev/tee-fusion-repo/optee/ta/optee_fusion_ta.c:16
      4c:	58d3      	ldr	r3, [r2, r3]
      4e:	681a      	ldr	r2, [r3, #0]
      50:	9b03      	ldr	r3, [sp, #12]
      52:	405a      	eors	r2, r3
      54:	f04f 0300 	mov.w	r3, #0
      58:	d003      	beq.n	62 <ensure_key+0x62>
      5a:	f000 f939 	bl	2d0 <__stack_chk_fail>
/home/ldx1/dev/tee-fusion-repo/optee/ta/optee_fusion_ta.c:9 (discriminator 1)
      5e:	2000      	movs	r0, #0
      60:	e7f1      	b.n	46 <ensure_key+0x46>
/home/ldx1/dev/tee-fusion-repo/optee/ta/optee_fusion_ta.c:16
      62:	b005      	add	sp, #20
      64:	bd30      	pop	{r4, r5, pc}
      66:	bf00      	nop
      68:	a1000041 	.word	0xa1000041
      6c:	f0000441 	.word	0xf0000441
      70:	0000f07e 	.word	0x0000f07e
      74:	0000000c 	.word	0x0000000c
      78:	0000f3ac 	.word	0x0000f3ac
      7c:	0000f03a 	.word	0x0000f03a

00000080 <TA_CreateEntryPoint>:
TA_CreateEntryPoint():
/home/ldx1/dev/tee-fusion-repo/optee/ta/optee_fusion_ta.c:93
      80:	2000      	movs	r0, #0
      82:	4770      	bx	lr

00000084 <TA_DestroyEntryPoint>:
TA_DestroyEntryPoint():
/home/ldx1/dev/tee-fusion-repo/optee/ta/optee_fusion_ta.c:94
      84:	b510      	push	{r4, lr}
      86:	4c04      	ldr	r4, [pc, #16]	@ (98 <TA_DestroyEntryPoint+0x14>)
      88:	447c      	add	r4, pc
      8a:	6820      	ldr	r0, [r4, #0]
      8c:	b118      	cbz	r0, 96 <TA_DestroyEntryPoint+0x12>
/home/ldx1/dev/tee-fusion-repo/optee/ta/optee_fusion_ta.c:94 (discriminator 1)
      8e:	f001 f9bd 	bl	140c <TEE_FreeTransientObject>
      92:	2300      	movs	r3, #0
      94:	6023      	str	r3, [r4, #0]
/home/ldx1/dev/tee-fusion-repo/optee/ta/optee_fusion_ta.c:94
      96:	bd10      	pop	{r4, pc}
      98:	0000f330 	.word	0x0000f330

0000009c <TA_OpenSessionEntryPoint>:
TA_OpenSessionEntryPoint():
/home/ldx1/dev/tee-fusion-repo/optee/ta/optee_fusion_ta.c:95
      9c:	2000      	movs	r0, #0
      9e:	4770      	bx	lr

000000a0 <TA_CloseSessionEntryPoint>:
TA_CloseSessionEntryPoint():
/home/ldx1/dev/tee-fusion-repo/optee/ta/optee_fusion_ta.c:96
      a0:	4770      	bx	lr

000000a2 <TA_InvokeCommandEntryPoint>:
TA_InvokeCommandEntryPoint():
/home/ldx1/dev/tee-fusion-repo/optee/ta/optee_fusion_ta.c:97
      a2:	4882      	ldr	r0, [pc, #520]	@ (2ac <TA_InvokeCommandEntryPoint+0x20a>)
/home/ldx1/dev/tee-fusion-repo/optee/ta/optee_fusion_ta.c:99
      a4:	3901      	subs	r1, #1
/home/ldx1/dev/tee-fusion-repo/optee/ta/optee_fusion_ta.c:97
      a6:	e92d 41f0 	stmdb	sp!, {r4, r5, r6, r7, r8, lr}
      aa:	461d      	mov	r5, r3
      ac:	4b80      	ldr	r3, [pc, #512]	@ (2b0 <TA_InvokeCommandEntryPoint+0x20e>)
      ae:	4478      	add	r0, pc
      b0:	b09a      	sub	sp, #104	@ 0x68
      b2:	58c3      	ldr	r3, [r0, r3]
      b4:	681b      	ldr	r3, [r3, #0]
      b6:	9319      	str	r3, [sp, #100]	@ 0x64
      b8:	f04f 0300 	mov.w	r3, #0
/home/ldx1/dev/tee-fusion-repo/optee/ta/optee_fusion_ta.c:99
      bc:	2904      	cmp	r1, #4
      be:	f200 80e3 	bhi.w	288 <TA_InvokeCommandEntryPoint+0x1e6>
      c2:	e8df f011 	tbh	[pc, r1, lsl #1]
      c6:	0005      	.short	0x0005
      c8:	0037001f 	.word	0x0037001f
      cc:	00d30084 	.word	0x00d30084
cmd_get_psa_token():
/home/ldx1/dev/tee-fusion-repo/optee/ta/optee_fusion_ta.c:82
      d0:	2a06      	cmp	r2, #6
      d2:	f040 80db 	bne.w	28c <TA_InvokeCommandEntryPoint+0x1ea>
/home/ldx1/dev/tee-fusion-repo/optee/ta/optee_fusion_ta.c:84
      d6:	4977      	ldr	r1, [pc, #476]	@ (2b4 <TA_InvokeCommandEntryPoint+0x212>)
      d8:	ab11      	add	r3, sp, #68	@ 0x44
      da:	2214      	movs	r2, #20
      dc:	4618      	mov	r0, r3
      de:	4479      	add	r1, pc
      e0:	f000 f8fe 	bl	2e0 <memcpy>
/home/ldx1/dev/tee-fusion-repo/optee/ta/optee_fusion_ta.c:86
      e4:	686a      	ldr	r2, [r5, #4]
      e6:	2a12      	cmp	r2, #18
      e8:	d803      	bhi.n	f2 <TA_InvokeCommandEntryPoint+0x50>
/home/ldx1/dev/tee-fusion-repo/optee/ta/optee_fusion_ta.c:86 (discriminator 1)
      ea:	2313      	movs	r3, #19
cmd_get_pubkey_xy():
/home/ldx1/dev/tee-fusion-repo/optee/ta/optee_fusion_ta.c:33 (discriminator 1)
      ec:	606b      	str	r3, [r5, #4]
cmd_rand():
/home/ldx1/dev/tee-fusion-repo/optee/ta/optee_fusion_ta.c:75 (discriminator 1)
      ee:	4c68      	ldr	r4, [pc, #416]	@ (290 <TA_InvokeCommandEntryPoint+0x1ee>)
/home/ldx1/dev/tee-fusion-repo/optee/ta/optee_fusion_ta.c:75
      f0:	e05f      	b.n	1b2 <TA_InvokeCommandEntryPoint+0x110>
cmd_get_psa_token():
/home/ldx1/dev/tee-fusion-repo/optee/ta/optee_fusion_ta.c:87
      f2:	4601      	mov	r1, r0
      f4:	2213      	movs	r2, #19
      f6:	6828      	ldr	r0, [r5, #0]
      f8:	f000 fd92 	bl	c20 <TEE_MemMove>
/home/ldx1/dev/tee-fusion-repo/optee/ta/optee_fusion_ta.c:88
      fc:	2313      	movs	r3, #19
      fe:	606b      	str	r3, [r5, #4]
cmd_rand():
/home/ldx1/dev/tee-fusion-repo/optee/ta/optee_fusion_ta.c:78
     100:	2400      	movs	r4, #0
     102:	e056      	b.n	1b2 <TA_InvokeCommandEntryPoint+0x110>
cmd_key_gen():
/home/ldx1/dev/tee-fusion-repo/optee/ta/optee_fusion_ta.c:20
     104:	4c6c      	ldr	r4, [pc, #432]	@ (2b8 <TA_InvokeCommandEntryPoint+0x216>)
     106:	447c      	add	r4, pc
     108:	6820      	ldr	r0, [r4, #0]
     10a:	b118      	cbz	r0, 114 <TA_InvokeCommandEntryPoint+0x72>
/home/ldx1/dev/tee-fusion-repo/optee/ta/optee_fusion_ta.c:20 (discriminator 1)
     10c:	f001 f97e 	bl	140c <TEE_FreeTransientObject>
     110:	2300      	movs	r3, #0
     112:	6023      	str	r3, [r4, #0]
TA_InvokeCommandEntryPoint():
/home/ldx1/dev/tee-fusion-repo/optee/ta/optee_fusion_ta.c:97
     114:	4a69      	ldr	r2, [pc, #420]	@ (2bc <TA_InvokeCommandEntryPoint+0x21a>)
cmd_key_gen():
/home/ldx1/dev/tee-fusion-repo/optee/ta/optee_fusion_ta.c:21
     116:	4b66      	ldr	r3, [pc, #408]	@ (2b0 <TA_InvokeCommandEntryPoint+0x20e>)
TA_InvokeCommandEntryPoint():
/home/ldx1/dev/tee-fusion-repo/optee/ta/optee_fusion_ta.c:97
     118:	447a      	add	r2, pc
cmd_key_gen():
/home/ldx1/dev/tee-fusion-repo/optee/ta/optee_fusion_ta.c:21
     11a:	58d3      	ldr	r3, [r2, r3]
     11c:	681a      	ldr	r2, [r3, #0]
     11e:	9b19      	ldr	r3, [sp, #100]	@ 0x64
     120:	405a      	eors	r2, r3
     122:	f04f 0300 	mov.w	r3, #0
     126:	d001      	beq.n	12c <TA_InvokeCommandEntryPoint+0x8a>
TA_InvokeCommandEntryPoint():
/home/ldx1/dev/tee-fusion-repo/optee/ta/optee_fusion_ta.c:107
     128:	f000 f8d2 	bl	2d0 <__stack_chk_fail>
     12c:	b01a      	add	sp, #104	@ 0x68
     12e:	e8bd 41f0 	ldmia.w	sp!, {r4, r5, r6, r7, r8, lr}
cmd_key_gen():
/home/ldx1/dev/tee-fusion-repo/optee/ta/optee_fusion_ta.c:21
     132:	e765      	b.n	0 <ensure_key>
cmd_get_pubkey_xy():
/home/ldx1/dev/tee-fusion-repo/optee/ta/optee_fusion_ta.c:25
     134:	2a06      	cmp	r2, #6
     136:	f040 80a9 	bne.w	28c <TA_InvokeCommandEntryPoint+0x1ea>
/home/ldx1/dev/tee-fusion-repo/optee/ta/optee_fusion_ta.c:27
     13a:	f7ff ff61 	bl	0 <ensure_key>
/home/ldx1/dev/tee-fusion-repo/optee/ta/optee_fusion_ta.c:27 (discriminator 1)
     13e:	4604      	mov	r4, r0
     140:	2800      	cmp	r0, #0
     142:	d136      	bne.n	1b2 <TA_InvokeCommandEntryPoint+0x110>
/home/ldx1/dev/tee-fusion-repo/optee/ta/optee_fusion_ta.c:29
     144:	2620      	movs	r6, #32
     146:	f10d 0824 	add.w	r8, sp, #36	@ 0x24
     14a:	4632      	mov	r2, r6
     14c:	4601      	mov	r1, r0
     14e:	af11      	add	r7, sp, #68	@ 0x44
     150:	4640      	mov	r0, r8
     152:	f00c fa70 	bl	c636 <memset>
     156:	4632      	mov	r2, r6
     158:	4621      	mov	r1, r4
     15a:	4638      	mov	r0, r7
     15c:	f00c fa6b 	bl	c636 <memset>
     160:	9607      	str	r6, [sp, #28]
     162:	9608      	str	r6, [sp, #32]
/home/ldx1/dev/tee-fusion-repo/optee/ta/optee_fusion_ta.c:30
     164:	ab07      	add	r3, sp, #28
     166:	4e56      	ldr	r6, [pc, #344]	@ (2c0 <TA_InvokeCommandEntryPoint+0x21e>)
     168:	4642      	mov	r2, r8
     16a:	494a      	ldr	r1, [pc, #296]	@ (294 <TA_InvokeCommandEntryPoint+0x1f2>)
     16c:	447e      	add	r6, pc
     16e:	6830      	ldr	r0, [r6, #0]
     170:	f000 fffc 	bl	116c <TEE_GetObjectBufferAttribute>
/home/ldx1/dev/tee-fusion-repo/optee/ta/optee_fusion_ta.c:30 (discriminator 1)
     174:	4604      	mov	r4, r0
     176:	b9e0      	cbnz	r0, 1b2 <TA_InvokeCommandEntryPoint+0x110>
/home/ldx1/dev/tee-fusion-repo/optee/ta/optee_fusion_ta.c:31
     178:	4947      	ldr	r1, [pc, #284]	@ (298 <TA_InvokeCommandEntryPoint+0x1f6>)
     17a:	ab08      	add	r3, sp, #32
     17c:	6830      	ldr	r0, [r6, #0]
     17e:	463a      	mov	r2, r7
     180:	f000 fff4 	bl	116c <TEE_GetObjectBufferAttribute>
/home/ldx1/dev/tee-fusion-repo/optee/ta/optee_fusion_ta.c:31 (discriminator 1)
     184:	4604      	mov	r4, r0
     186:	b9a0      	cbnz	r0, 1b2 <TA_InvokeCommandEntryPoint+0x110>
/home/ldx1/dev/tee-fusion-repo/optee/ta/optee_fusion_ta.c:33
     188:	9a07      	ldr	r2, [sp, #28]
     18a:	9b08      	ldr	r3, [sp, #32]
     18c:	6869      	ldr	r1, [r5, #4]
     18e:	4413      	add	r3, r2
     190:	4299      	cmp	r1, r3
     192:	d3ab      	bcc.n	ec <TA_InvokeCommandEntryPoint+0x4a>
/home/ldx1/dev/tee-fusion-repo/optee/ta/optee_fusion_ta.c:34
     194:	4641      	mov	r1, r8
     196:	6828      	ldr	r0, [r5, #0]
     198:	f000 fd42 	bl	c20 <TEE_MemMove>
/home/ldx1/dev/tee-fusion-repo/optee/ta/optee_fusion_ta.c:35
     19c:	9b07      	ldr	r3, [sp, #28]
     19e:	6828      	ldr	r0, [r5, #0]
     1a0:	4639      	mov	r1, r7
     1a2:	9a08      	ldr	r2, [sp, #32]
     1a4:	4418      	add	r0, r3
     1a6:	f000 fd3b 	bl	c20 <TEE_MemMove>
/home/ldx1/dev/tee-fusion-repo/optee/ta/optee_fusion_ta.c:36
     1aa:	9b07      	ldr	r3, [sp, #28]
     1ac:	9a08      	ldr	r2, [sp, #32]
     1ae:	4413      	add	r3, r2
     1b0:	606b      	str	r3, [r5, #4]
TA_InvokeCommandEntryPoint():
/home/ldx1/dev/tee-fusion-repo/optee/ta/optee_fusion_ta.c:97
     1b2:	4a44      	ldr	r2, [pc, #272]	@ (2c4 <TA_InvokeCommandEntryPoint+0x222>)
/home/ldx1/dev/tee-fusion-repo/optee/ta/optee_fusion_ta.c:107
     1b4:	4b3e      	ldr	r3, [pc, #248]	@ (2b0 <TA_InvokeCommandEntryPoint+0x20e>)
/home/ldx1/dev/tee-fusion-repo/optee/ta/optee_fusion_ta.c:97
     1b6:	447a      	add	r2, pc
/home/ldx1/dev/tee-fusion-repo/optee/ta/optee_fusion_ta.c:107
     1b8:	58d3      	ldr	r3, [r2, r3]
     1ba:	681a      	ldr	r2, [r3, #0]
     1bc:	9b19      	ldr	r3, [sp, #100]	@ 0x64
     1be:	405a      	eors	r2, r3
     1c0:	f04f 0300 	mov.w	r3, #0
     1c4:	d1b0      	bne.n	128 <TA_InvokeCommandEntryPoint+0x86>
     1c6:	4620      	mov	r0, r4
     1c8:	b01a      	add	sp, #104	@ 0x68
     1ca:	e8bd 81f0 	ldmia.w	sp!, {r4, r5, r6, r7, r8, pc}
cmd_key_sign():
/home/ldx1/dev/tee-fusion-repo/optee/ta/optee_fusion_ta.c:41
     1ce:	2a65      	cmp	r2, #101	@ 0x65
     1d0:	d15c      	bne.n	28c <TA_InvokeCommandEntryPoint+0x1ea>
/home/ldx1/dev/tee-fusion-repo/optee/ta/optee_fusion_ta.c:43
     1d2:	f7ff ff15 	bl	0 <ensure_key>
/home/ldx1/dev/tee-fusion-repo/optee/ta/optee_fusion_ta.c:43 (discriminator 1)
     1d6:	4604      	mov	r4, r0
     1d8:	2800      	cmp	r0, #0
     1da:	d1ea      	bne.n	1b2 <TA_InvokeCommandEntryPoint+0x110>
/home/ldx1/dev/tee-fusion-repo/optee/ta/optee_fusion_ta.c:47
     1dc:	2320      	movs	r3, #32
/home/ldx1/dev/tee-fusion-repo/optee/ta/optee_fusion_ta.c:45
     1de:	9005      	str	r0, [sp, #20]
/home/ldx1/dev/tee-fusion-repo/optee/ta/optee_fusion_ta.c:46
     1e0:	9006      	str	r0, [sp, #24]
/home/ldx1/dev/tee-fusion-repo/optee/ta/optee_fusion_ta.c:49
     1e2:	2205      	movs	r2, #5
/home/ldx1/dev/tee-fusion-repo/optee/ta/optee_fusion_ta.c:47
     1e4:	9307      	str	r3, [sp, #28]
/home/ldx1/dev/tee-fusion-repo/optee/ta/optee_fusion_ta.c:49
     1e6:	4603      	mov	r3, r0
     1e8:	492c      	ldr	r1, [pc, #176]	@ (29c <TA_InvokeCommandEntryPoint+0x1fa>)
     1ea:	a805      	add	r0, sp, #20
     1ec:	f002 f97c 	bl	24e8 <TEE_AllocateOperation>
/home/ldx1/dev/tee-fusion-repo/optee/ta/optee_fusion_ta.c:50
     1f0:	4604      	mov	r4, r0
     1f2:	2800      	cmp	r0, #0
     1f4:	d130      	bne.n	258 <TA_InvokeCommandEntryPoint+0x1b6>
/home/ldx1/dev/tee-fusion-repo/optee/ta/optee_fusion_ta.c:51
     1f6:	ab07      	add	r3, sp, #28
     1f8:	9300      	str	r3, [sp, #0]
     1fa:	ae11      	add	r6, sp, #68	@ 0x44
     1fc:	9805      	ldr	r0, [sp, #20]
     1fe:	e9d5 1200 	ldrd	r1, r2, [r5]
     202:	4633      	mov	r3, r6
     204:	f002 ff48 	bl	3098 <TEE_DigestDoFinal>
/home/ldx1/dev/tee-fusion-repo/optee/ta/optee_fusion_ta.c:54
     208:	4925      	ldr	r1, [pc, #148]	@ (2a0 <TA_InvokeCommandEntryPoint+0x1fe>)
     20a:	f44f 7380 	mov.w	r3, #256	@ 0x100
     20e:	2202      	movs	r2, #2
     210:	a806      	add	r0, sp, #24
     212:	f002 f969 	bl	24e8 <TEE_AllocateOperation>
/home/ldx1/dev/tee-fusion-repo/optee/ta/optee_fusion_ta.c:55
     216:	4604      	mov	r4, r0
     218:	b9f0      	cbnz	r0, 258 <TA_InvokeCommandEntryPoint+0x1b6>
/home/ldx1/dev/tee-fusion-repo/optee/ta/optee_fusion_ta.c:56
     21a:	4b2b      	ldr	r3, [pc, #172]	@ (2c8 <TA_InvokeCommandEntryPoint+0x226>)
     21c:	9806      	ldr	r0, [sp, #24]
     21e:	447b      	add	r3, pc
     220:	6819      	ldr	r1, [r3, #0]
     222:	f002 fe2d 	bl	2e80 <TEE_SetOperationKey>
/home/ldx1/dev/tee-fusion-repo/optee/ta/optee_fusion_ta.c:57
     226:	4604      	mov	r4, r0
     228:	b9b0      	cbnz	r0, 258 <TA_InvokeCommandEntryPoint+0x1b6>
/home/ldx1/dev/tee-fusion-repo/optee/ta/optee_fusion_ta.c:59
     22a:	68eb      	ldr	r3, [r5, #12]
/home/ldx1/dev/tee-fusion-repo/optee/ta/optee_fusion_ta.c:60
     22c:	4602      	mov	r2, r0
/home/ldx1/dev/tee-fusion-repo/optee/ta/optee_fusion_ta.c:59
     22e:	9308      	str	r3, [sp, #32]
/home/ldx1/dev/tee-fusion-repo/optee/ta/optee_fusion_ta.c:60
     230:	ab08      	add	r3, sp, #32
     232:	9302      	str	r3, [sp, #8]
     234:	4601      	mov	r1, r0
     236:	9806      	ldr	r0, [sp, #24]
     238:	68ab      	ldr	r3, [r5, #8]
     23a:	9301      	str	r3, [sp, #4]
     23c:	9b07      	ldr	r3, [sp, #28]
     23e:	9300      	str	r3, [sp, #0]
     240:	4633      	mov	r3, r6
     242:	f004 f883 	bl	434c <TEE_AsymmetricSignDigest>
/home/ldx1/dev/tee-fusion-repo/optee/ta/optee_fusion_ta.c:61
     246:	4b12      	ldr	r3, [pc, #72]	@ (290 <TA_InvokeCommandEntryPoint+0x1ee>)
/home/ldx1/dev/tee-fusion-repo/optee/ta/optee_fusion_ta.c:60
     248:	4604      	mov	r4, r0
/home/ldx1/dev/tee-fusion-repo/optee/ta/optee_fusion_ta.c:61
     24a:	4298      	cmp	r0, r3
     24c:	d102      	bne.n	254 <TA_InvokeCommandEntryPoint+0x1b2>
/home/ldx1/dev/tee-fusion-repo/optee/ta/optee_fusion_ta.c:63
     24e:	9b08      	ldr	r3, [sp, #32]
     250:	60eb      	str	r3, [r5, #12]
     252:	e001      	b.n	258 <TA_InvokeCommandEntryPoint+0x1b6>
/home/ldx1/dev/tee-fusion-repo/optee/ta/optee_fusion_ta.c:62
     254:	2800      	cmp	r0, #0
     256:	d0fa      	beq.n	24e <TA_InvokeCommandEntryPoint+0x1ac>
/home/ldx1/dev/tee-fusion-repo/optee/ta/optee_fusion_ta.c:66
     258:	9805      	ldr	r0, [sp, #20]
     25a:	b108      	cbz	r0, 260 <TA_InvokeCommandEntryPoint+0x1be>
/home/ldx1/dev/tee-fusion-repo/optee/ta/optee_fusion_ta.c:66 (discriminator 1)
     25c:	f002 f932 	bl	24c4 <TEE_FreeOperation>
/home/ldx1/dev/tee-fusion-repo/optee/ta/optee_fusion_ta.c:67
     260:	9806      	ldr	r0, [sp, #24]
     262:	2800      	cmp	r0, #0
     264:	d0a5      	beq.n	1b2 <TA_InvokeCommandEntryPoint+0x110>
/home/ldx1/dev/tee-fusion-repo/optee/ta/optee_fusion_ta.c:67 (discriminator 1)
     266:	f002 f92d 	bl	24c4 <TEE_FreeOperation>
     26a:	e7a2      	b.n	1b2 <TA_InvokeCommandEntryPoint+0x110>
cmd_rand():
/home/ldx1/dev/tee-fusion-repo/optee/ta/optee_fusion_ta.c:72
     26c:	2a61      	cmp	r2, #97	@ 0x61
     26e:	d10d      	bne.n	28c <TA_InvokeCommandEntryPoint+0x1ea>
/home/ldx1/dev/tee-fusion-repo/optee/ta/optee_fusion_ta.c:74
     270:	682c      	ldr	r4, [r5, #0]
/home/ldx1/dev/tee-fusion-repo/optee/ta/optee_fusion_ta.c:75
     272:	68eb      	ldr	r3, [r5, #12]
     274:	429c      	cmp	r4, r3
     276:	d901      	bls.n	27c <TA_InvokeCommandEntryPoint+0x1da>
/home/ldx1/dev/tee-fusion-repo/optee/ta/optee_fusion_ta.c:75 (discriminator 1)
     278:	60ec      	str	r4, [r5, #12]
     27a:	e738      	b.n	ee <TA_InvokeCommandEntryPoint+0x4c>
/home/ldx1/dev/tee-fusion-repo/optee/ta/optee_fusion_ta.c:76
     27c:	68a8      	ldr	r0, [r5, #8]
     27e:	4621      	mov	r1, r4
     280:	f004 fb24 	bl	48cc <TEE_GenerateRandom>
/home/ldx1/dev/tee-fusion-repo/optee/ta/optee_fusion_ta.c:77
     284:	60ec      	str	r4, [r5, #12]
     286:	e73b      	b.n	100 <TA_InvokeCommandEntryPoint+0x5e>
TA_InvokeCommandEntryPoint():
/home/ldx1/dev/tee-fusion-repo/optee/ta/optee_fusion_ta.c:99
     288:	4c06      	ldr	r4, [pc, #24]	@ (2a4 <TA_InvokeCommandEntryPoint+0x202>)
     28a:	e792      	b.n	1b2 <TA_InvokeCommandEntryPoint+0x110>
cmd_rand():
/home/ldx1/dev/tee-fusion-repo/optee/ta/optee_fusion_ta.c:73
     28c:	4c06      	ldr	r4, [pc, #24]	@ (2a8 <TA_InvokeCommandEntryPoint+0x206>)
     28e:	e790      	b.n	1b2 <TA_InvokeCommandEntryPoint+0x110>
     290:	ffff0010 	.word	0xffff0010
     294:	d0000141 	.word	0xd0000141
     298:	d0000241 	.word	0xd0000241
     29c:	50000004 	.word	0x50000004
     2a0:	70003042 	.word	0x70003042
     2a4:	ffff000a 	.word	0xffff000a
     2a8:	ffff0006 	.word	0xffff0006
     2ac:	0000efd6 	.word	0x0000efd6
     2b0:	0000000c 	.word	0x0000000c
     2b4:	0000cda2 	.word	0x0000cda2
     2b8:	0000f2b2 	.word	0x0000f2b2
     2bc:	0000ef6c 	.word	0x0000ef6c
     2c0:	0000f24c 	.word	0x0000f24c
     2c4:	0000eece 	.word	0x0000eece
     2c8:	0000f19a 	.word	0x0000f19a

000002cc <__ta_entry>:
__ta_entry():
/home/ldx1/dev/tee-fusion-repo/build/optee_os_ep-prefix/src/optee_os_ep/out/arm-plat-vexpress/export-ta_arm32/src/ta_entry_a32.S:22
     2cc:	fa0030d5 	blx	c628 <__ta_entry_c>

000002d0 <__stack_chk_fail>:
__stack_chk_fail():
/home/ldx1/dev/tee-fusion-repo/build/optee_os_ep-prefix/src/optee_os_ep/lib/libutils/isoc/stack_check.c:24
     2d0:	b510      	push	{r4, lr}
/home/ldx1/dev/tee-fusion-repo/build/optee_os_ep-prefix/src/optee_os_ep/lib/libutils/isoc/stack_check.c:27 (discriminator 1)
     2d2:	4c02      	ldr	r4, [pc, #8]	@ (2dc <__stack_chk_fail+0xc>)
     2d4:	4620      	mov	r0, r4
     2d6:	f005 e88e 	blx	53f4 <_utee_panic>
/home/ldx1/dev/tee-fusion-repo/build/optee_os_ep-prefix/src/optee_os_ep/lib/libutils/isoc/stack_check.c:26
     2da:	e7fb      	b.n	2d4 <__stack_chk_fail+0x4>
     2dc:	ffff300f 	.word	0xffff300f

000002e0 <memcpy>:
memcpy():
/home/ldx1/dev/tee-fusion-repo/build/optee_os_ep-prefix/src/optee_os_ep/lib/libutils/isoc/newlib/memcpy.c:106
     2e0:	2a0f      	cmp	r2, #15
     2e2:	d912      	bls.n	30a <memcpy+0x2a>
/home/ldx1/dev/tee-fusion-repo/build/optee_os_ep-prefix/src/optee_os_ep/lib/libutils/isoc/newlib/memcpy.c:106 (discriminator 1)
     2e4:	ea40 0301 	orr.w	r3, r0, r1
     2e8:	079b      	lsls	r3, r3, #30
/home/ldx1/dev/tee-fusion-repo/build/optee_os_ep-prefix/src/optee_os_ep/lib/libutils/isoc/newlib/memcpy.c:130
     2ea:	bf1c      	itt	ne
     2ec:	f102 3cff 	addne.w	ip, r2, #4294967295	@ 0xffffffff
/home/ldx1/dev/tee-fusion-repo/build/optee_os_ep-prefix/src/optee_os_ep/lib/libutils/isoc/newlib/memcpy.c:99
     2f0:	4603      	movne	r3, r0
/home/ldx1/dev/tee-fusion-repo/build/optee_os_ep-prefix/src/optee_os_ep/lib/libutils/isoc/newlib/memcpy.c:106 (discriminator 1)
     2f2:	d010      	beq.n	316 <memcpy+0x36>
     2f4:	f10c 0c01 	add.w	ip, ip, #1
     2f8:	3b01      	subs	r3, #1
     2fa:	448c      	add	ip, r1
/home/ldx1/dev/tee-fusion-repo/build/optee_os_ep-prefix/src/optee_os_ep/lib/libutils/isoc/newlib/memcpy.c:131
     2fc:	f811 2b01 	ldrb.w	r2, [r1], #1
     300:	f803 2f01 	strb.w	r2, [r3, #1]!
/home/ldx1/dev/tee-fusion-repo/build/optee_os_ep-prefix/src/optee_os_ep/lib/libutils/isoc/newlib/memcpy.c:130
     304:	4561      	cmp	r1, ip
     306:	d1f9      	bne.n	2fc <memcpy+0x1c>
     308:	4770      	bx	lr
/home/ldx1/dev/tee-fusion-repo/build/optee_os_ep-prefix/src/optee_os_ep/lib/libutils/isoc/newlib/memcpy.c:99
     30a:	4603      	mov	r3, r0
/home/ldx1/dev/tee-fusion-repo/build/optee_os_ep-prefix/src/optee_os_ep/lib/libutils/isoc/newlib/memcpy.c:130
     30c:	f102 3cff 	add.w	ip, r2, #4294967295	@ 0xffffffff
     310:	2a00      	cmp	r2, #0
     312:	d1ef      	bne.n	2f4 <memcpy+0x14>
/home/ldx1/dev/tee-fusion-repo/build/optee_os_ep-prefix/src/optee_os_ep/lib/libutils/isoc/newlib/memcpy.c:135
     314:	4770      	bx	lr
     316:	f1a2 0310 	sub.w	r3, r2, #16
/home/ldx1/dev/tee-fusion-repo/build/optee_os_ep-prefix/src/optee_os_ep/lib/libutils/isoc/newlib/memcpy.c:87
     31a:	b570      	push	{r4, r5, r6, lr}
     31c:	f101 0c20 	add.w	ip, r1, #32
     320:	f023 060f 	bic.w	r6, r3, #15
     324:	f101 0410 	add.w	r4, r1, #16
     328:	f100 0510 	add.w	r5, r0, #16
     32c:	44b4      	add	ip, r6
     32e:	ea4f 1e13 	mov.w	lr, r3, lsr #4
/home/ldx1/dev/tee-fusion-repo/build/optee_os_ep-prefix/src/optee_os_ep/lib/libutils/isoc/newlib/memcpy.c:112
     332:	f854 3c10 	ldr.w	r3, [r4, #-16]
/home/ldx1/dev/tee-fusion-repo/build/optee_os_ep-prefix/src/optee_os_ep/lib/libutils/isoc/newlib/memcpy.c:111
     336:	3410      	adds	r4, #16
/home/ldx1/dev/tee-fusion-repo/build/optee_os_ep-prefix/src/optee_os_ep/lib/libutils/isoc/newlib/memcpy.c:112
     338:	f845 3c10 	str.w	r3, [r5, #-16]
/home/ldx1/dev/tee-fusion-repo/build/optee_os_ep-prefix/src/optee_os_ep/lib/libutils/isoc/newlib/memcpy.c:111
     33c:	3510      	adds	r5, #16
     33e:	4564      	cmp	r4, ip
/home/ldx1/dev/tee-fusion-repo/build/optee_os_ep-prefix/src/optee_os_ep/lib/libutils/isoc/newlib/memcpy.c:113
     340:	f854 3c1c 	ldr.w	r3, [r4, #-28]
     344:	f845 3c1c 	str.w	r3, [r5, #-28]
/home/ldx1/dev/tee-fusion-repo/build/optee_os_ep-prefix/src/optee_os_ep/lib/libutils/isoc/newlib/memcpy.c:114
     348:	f854 3c18 	ldr.w	r3, [r4, #-24]
     34c:	f845 3c18 	str.w	r3, [r5, #-24]
/home/ldx1/dev/tee-fusion-repo/build/optee_os_ep-prefix/src/optee_os_ep/lib/libutils/isoc/newlib/memcpy.c:115
     350:	f854 3c14 	ldr.w	r3, [r4, #-20]
     354:	f845 3c14 	str.w	r3, [r5, #-20]
/home/ldx1/dev/tee-fusion-repo/build/optee_os_ep-prefix/src/optee_os_ep/lib/libutils/isoc/newlib/memcpy.c:111
     358:	d1eb      	bne.n	332 <memcpy+0x52>
     35a:	f10e 0301 	add.w	r3, lr, #1
     35e:	f002 050f 	and.w	r5, r2, #15
/home/ldx1/dev/tee-fusion-repo/build/optee_os_ep-prefix/src/optee_os_ep/lib/libutils/isoc/newlib/memcpy.c:120
     362:	f012 0f0c 	tst.w	r2, #12
     366:	ea4f 1303 	mov.w	r3, r3, lsl #4
     36a:	bf08      	it	eq
     36c:	462a      	moveq	r2, r5
     36e:	4419      	add	r1, r3
     370:	4403      	add	r3, r0
     372:	d012      	beq.n	39a <memcpy+0xba>
     374:	3d04      	subs	r5, #4
     376:	1f1c      	subs	r4, r3, #4
     378:	f025 0e03 	bic.w	lr, r5, #3
     37c:	468c      	mov	ip, r1
     37e:	08ad      	lsrs	r5, r5, #2
     380:	449e      	add	lr, r3
/home/ldx1/dev/tee-fusion-repo/build/optee_os_ep-prefix/src/optee_os_ep/lib/libutils/isoc/newlib/memcpy.c:121
     382:	f85c 6b04 	ldr.w	r6, [ip], #4
     386:	f844 6f04 	str.w	r6, [r4, #4]!
/home/ldx1/dev/tee-fusion-repo/build/optee_os_ep-prefix/src/optee_os_ep/lib/libutils/isoc/newlib/memcpy.c:120
     38a:	4574      	cmp	r4, lr
     38c:	d1f9      	bne.n	382 <memcpy+0xa2>
     38e:	1c6c      	adds	r4, r5, #1
     390:	f002 0203 	and.w	r2, r2, #3
     394:	00a4      	lsls	r4, r4, #2
/home/ldx1/dev/tee-fusion-repo/build/optee_os_ep-prefix/src/optee_os_ep/lib/libutils/isoc/newlib/memcpy.c:126
     396:	4423      	add	r3, r4
/home/ldx1/dev/tee-fusion-repo/build/optee_os_ep-prefix/src/optee_os_ep/lib/libutils/isoc/newlib/memcpy.c:127
     398:	4421      	add	r1, r4
/home/ldx1/dev/tee-fusion-repo/build/optee_os_ep-prefix/src/optee_os_ep/lib/libutils/isoc/newlib/memcpy.c:130
     39a:	f102 3cff 	add.w	ip, r2, #4294967295	@ 0xffffffff
     39e:	3b01      	subs	r3, #1
     3a0:	f10c 0c01 	add.w	ip, ip, #1
     3a4:	448c      	add	ip, r1
     3a6:	b12a      	cbz	r2, 3b4 <memcpy+0xd4>
/home/ldx1/dev/tee-fusion-repo/build/optee_os_ep-prefix/src/optee_os_ep/lib/libutils/isoc/newlib/memcpy.c:131
     3a8:	f811 2b01 	ldrb.w	r2, [r1], #1
     3ac:	f803 2f01 	strb.w	r2, [r3, #1]!
/home/ldx1/dev/tee-fusion-repo/build/optee_os_ep-prefix/src/optee_os_ep/lib/libutils/isoc/newlib/memcpy.c:130
     3b0:	4561      	cmp	r1, ip
     3b2:	d1f9      	bne.n	3a8 <memcpy+0xc8>
/home/ldx1/dev/tee-fusion-repo/build/optee_os_ep-prefix/src/optee_os_ep/lib/libutils/isoc/newlib/memcpy.c:135
     3b4:	bd70      	pop	{r4, r5, r6, pc}
     3b6:	bf00      	nop

000003b8 <copy_param>:
copy_param():
/home/ldx1/dev/tee-fusion-repo/build/optee_os_ep-prefix/src/optee_os_ep/lib/libutee/tee_api.c:38
     3b8:	b5f0      	push	{r4, r5, r6, r7, lr}
     3ba:	4616      	mov	r6, r2
/home/ldx1/dev/tee-fusion-repo/build/optee_os_ep-prefix/src/optee_os_ep/lib/libutee/tee_api.c:43
     3bc:	2400      	movs	r4, #0
     3be:	e9c0 1400 	strd	r1, r4, [r0]
/home/ldx1/dev/tee-fusion-repo/build/optee_os_ep-prefix/src/optee_os_ep/lib/libutee/tee_api.c:45
     3c2:	fa21 f304 	lsr.w	r3, r1, r4
     3c6:	f003 050f 	and.w	r5, r3, #15
     3ca:	2d03      	cmp	r5, #3
     3cc:	d00d      	beq.n	3ea <copy_param+0x32>
     3ce:	f013 030c 	ands.w	r3, r3, #12
     3d2:	d105      	bne.n	3e0 <copy_param+0x28>
     3d4:	2d01      	cmp	r5, #1
     3d6:	d008      	beq.n	3ea <copy_param+0x32>
     3d8:	461f      	mov	r7, r3
     3da:	469c      	mov	ip, r3
     3dc:	461d      	mov	r5, r3
     3de:	e009      	b.n	3f4 <copy_param+0x3c>
     3e0:	3d05      	subs	r5, #5
     3e2:	2d02      	cmp	r5, #2
     3e4:	d901      	bls.n	3ea <copy_param+0x32>
     3e6:	2300      	movs	r3, #0
     3e8:	e7f6      	b.n	3d8 <copy_param+0x20>
/home/ldx1/dev/tee-fusion-repo/build/optee_os_ep-prefix/src/optee_os_ep/lib/libutee/tee_api.c:54
     3ea:	2500      	movs	r5, #0
     3ec:	f852 c014 	ldr.w	ip, [r2, r4, lsl #1]
/home/ldx1/dev/tee-fusion-repo/build/optee_os_ep-prefix/src/optee_os_ep/lib/libutee/tee_api.c:55
     3f0:	6873      	ldr	r3, [r6, #4]
     3f2:	462f      	mov	r7, r5
/home/ldx1/dev/tee-fusion-repo/build/optee_os_ep-prefix/src/optee_os_ep/lib/libutee/tee_api.c:44 (discriminator 1)
     3f4:	3404      	adds	r4, #4
/home/ldx1/dev/tee-fusion-repo/build/optee_os_ep-prefix/src/optee_os_ep/lib/libutee/tee_api.c:61
     3f6:	e9c0 c502 	strd	ip, r5, [r0, #8]
/home/ldx1/dev/tee-fusion-repo/build/optee_os_ep-prefix/src/optee_os_ep/lib/libutee/tee_api.c:62
     3fa:	e9c0 3704 	strd	r3, r7, [r0, #16]
/home/ldx1/dev/tee-fusion-repo/build/optee_os_ep-prefix/src/optee_os_ep/lib/libutee/tee_api.c:44 (discriminator 1)
     3fe:	3608      	adds	r6, #8
     400:	3010      	adds	r0, #16
     402:	2c10      	cmp	r4, #16
     404:	d1dd      	bne.n	3c2 <copy_param+0xa>
/home/ldx1/dev/tee-fusion-repo/build/optee_os_ep-prefix/src/optee_os_ep/lib/libutee/tee_api.c:64
     406:	bdf0      	pop	{r4, r5, r6, r7, pc}

00000408 <copy_gp11_param>:
copy_gp11_param():
/home/ldx1/dev/tee-fusion-repo/build/optee_os_ep-prefix/src/optee_os_ep/lib/libutee/tee_api.c:68
     408:	b5f0      	push	{r4, r5, r6, r7, lr}
     40a:	4616      	mov	r6, r2
/home/ldx1/dev/tee-fusion-repo/build/optee_os_ep-prefix/src/optee_os_ep/lib/libutee/tee_api.c:73
     40c:	2400      	movs	r4, #0
     40e:	e9c0 1400 	strd	r1, r4, [r0]
/home/ldx1/dev/tee-fusion-repo/build/optee_os_ep-prefix/src/optee_os_ep/lib/libutee/tee_api.c:75
     412:	fa21 f304 	lsr.w	r3, r1, r4
     416:	f003 050f 	and.w	r5, r3, #15
     41a:	2d03      	cmp	r5, #3
     41c:	d00d      	beq.n	43a <copy_gp11_param+0x32>
     41e:	f013 030c 	ands.w	r3, r3, #12
     422:	d105      	bne.n	430 <copy_gp11_param+0x28>
     424:	2d01      	cmp	r5, #1
     426:	d008      	beq.n	43a <copy_gp11_param+0x32>
     428:	461f      	mov	r7, r3
     42a:	469c      	mov	ip, r3
     42c:	461d      	mov	r5, r3
     42e:	e009      	b.n	444 <copy_gp11_param+0x3c>
     430:	3d05      	subs	r5, #5
     432:	2d02      	cmp	r5, #2
     434:	d901      	bls.n	43a <copy_gp11_param+0x32>
     436:	2300      	movs	r3, #0
     438:	e7f6      	b.n	428 <copy_gp11_param+0x20>
/home/ldx1/dev/tee-fusion-repo/build/optee_os_ep-prefix/src/optee_os_ep/lib/libutee/tee_api.c:84
     43a:	2500      	movs	r5, #0
     43c:	f852 c014 	ldr.w	ip, [r2, r4, lsl #1]
/home/ldx1/dev/tee-fusion-repo/build/optee_os_ep-prefix/src/optee_os_ep/lib/libutee/tee_api.c:85
     440:	6873      	ldr	r3, [r6, #4]
     442:	462f      	mov	r7, r5
/home/ldx1/dev/tee-fusion-repo/build/optee_os_ep-prefix/src/optee_os_ep/lib/libutee/tee_api.c:74 (discriminator 1)
     444:	3404      	adds	r4, #4
/home/ldx1/dev/tee-fusion-repo/build/optee_os_ep-prefix/src/optee_os_ep/lib/libutee/tee_api.c:91
     446:	e9c0 c502 	strd	ip, r5, [r0, #8]
/home/ldx1/dev/tee-fusion-repo/build/optee_os_ep-prefix/src/optee_os_ep/lib/libutee/tee_api.c:92
     44a:	e9c0 3704 	strd	r3, r7, [r0, #16]
/home/ldx1/dev/tee-fusion-repo/build/optee_os_ep-prefix/src/optee_os_ep/lib/libutee/tee_api.c:74 (discriminator 1)
     44e:	3608      	adds	r6, #8
     450:	3010      	adds	r0, #16
     452:	2c10      	cmp	r4, #16
     454:	d1dd      	bne.n	412 <copy_gp11_param+0xa>
/home/ldx1/dev/tee-fusion-repo/build/optee_os_ep-prefix/src/optee_os_ep/lib/libutee/tee_api.c:94
     456:	bdf0      	pop	{r4, r5, r6, r7, pc}

00000458 <check_mem_access_rights_params>:
check_mem_access_rights_params():
/home/ldx1/dev/tee-fusion-repo/build/optee_os_ep-prefix/src/optee_os_ep/lib/libutee/tee_api.c:255
     458:	4b18      	ldr	r3, [pc, #96]	@ (4bc <check_mem_access_rights_params+0x64>)
     45a:	b5f0      	push	{r4, r5, r6, r7, lr}
bufs_intersect():
/home/ldx1/dev/tee-fusion-repo/build/optee_os_ep-prefix/src/optee_os_ep/lib/libutee/tee_api.c:241
     45c:	1e57      	subs	r7, r2, #1
check_mem_access_rights_params():
/home/ldx1/dev/tee-fusion-repo/build/optee_os_ep-prefix/src/optee_os_ep/lib/libutee/tee_api.c:261
     45e:	4c18      	ldr	r4, [pc, #96]	@ (4c0 <check_mem_access_rights_params+0x68>)
/home/ldx1/dev/tee-fusion-repo/build/optee_os_ep-prefix/src/optee_os_ep/lib/libutee/tee_api.c:255
     460:	447b      	add	r3, pc
/home/ldx1/dev/tee-fusion-repo/build/optee_os_ep-prefix/src/optee_os_ep/lib/libutee/tee_api.c:261
     462:	2500      	movs	r5, #0
bufs_intersect():
/home/ldx1/dev/tee-fusion-repo/build/optee_os_ep-prefix/src/optee_os_ep/lib/libutee/tee_api.c:241
     464:	440f      	add	r7, r1
check_mem_access_rights_params():
/home/ldx1/dev/tee-fusion-repo/build/optee_os_ep-prefix/src/optee_os_ep/lib/libutee/tee_api.c:261
     466:	591c      	ldr	r4, [r3, r4]
     468:	f8d4 c000 	ldr.w	ip, [r4]
     46c:	4c15      	ldr	r4, [pc, #84]	@ (4c4 <check_mem_access_rights_params+0x6c>)
     46e:	591e      	ldr	r6, [r3, r4]
     470:	fa2c f305 	lsr.w	r3, ip, r5
     474:	f003 030f 	and.w	r3, r3, #15
     478:	2b05      	cmp	r3, #5
     47a:	d019      	beq.n	4b0 <check_mem_access_rights_params+0x58>
     47c:	3b06      	subs	r3, #6
     47e:	2b01      	cmp	r3, #1
     480:	d810      	bhi.n	4a4 <check_mem_access_rights_params+0x4c>
     482:	2406      	movs	r4, #6
bufs_intersect():
/home/ldx1/dev/tee-fusion-repo/build/optee_os_ep-prefix/src/optee_os_ep/lib/libutee/tee_api.c:244
     484:	b172      	cbz	r2, 4a4 <check_mem_access_rights_params+0x4c>
check_mem_access_rights_params():
/home/ldx1/dev/tee-fusion-repo/build/optee_os_ep-prefix/src/optee_os_ep/lib/libutee/tee_api.c:268
     486:	6873      	ldr	r3, [r6, #4]
bufs_intersect():
/home/ldx1/dev/tee-fusion-repo/build/optee_os_ep-prefix/src/optee_os_ep/lib/libutee/tee_api.c:244 (discriminator 1)
     488:	b163      	cbz	r3, 4a4 <check_mem_access_rights_params+0x4c>
/home/ldx1/dev/tee-fusion-repo/build/optee_os_ep-prefix/src/optee_os_ep/lib/libutee/tee_api.c:240
     48a:	f8d6 e000 	ldr.w	lr, [r6]
/home/ldx1/dev/tee-fusion-repo/build/optee_os_ep-prefix/src/optee_os_ep/lib/libutee/tee_api.c:247
     48e:	45be      	cmp	lr, r7
     490:	d808      	bhi.n	4a4 <check_mem_access_rights_params+0x4c>
/home/ldx1/dev/tee-fusion-repo/build/optee_os_ep-prefix/src/optee_os_ep/lib/libutee/tee_api.c:242
     492:	3b01      	subs	r3, #1
     494:	4473      	add	r3, lr
/home/ldx1/dev/tee-fusion-repo/build/optee_os_ep-prefix/src/optee_os_ep/lib/libutee/tee_api.c:247 (discriminator 1)
     496:	4299      	cmp	r1, r3
     498:	d804      	bhi.n	4a4 <check_mem_access_rights_params+0x4c>
check_mem_access_rights_params():
/home/ldx1/dev/tee-fusion-repo/build/optee_os_ep-prefix/src/optee_os_ep/lib/libutee/tee_api.c:267
     49a:	f044 0401 	orr.w	r4, r4, #1
/home/ldx1/dev/tee-fusion-repo/build/optee_os_ep-prefix/src/optee_os_ep/lib/libutee/tee_api.c:271
     49e:	ea30 0404 	bics.w	r4, r0, r4
     4a2:	d107      	bne.n	4b4 <check_mem_access_rights_params+0x5c>
/home/ldx1/dev/tee-fusion-repo/build/optee_os_ep-prefix/src/optee_os_ep/lib/libutee/tee_api.c:258 (discriminator 1)
     4a4:	3504      	adds	r5, #4
     4a6:	3608      	adds	r6, #8
     4a8:	2d10      	cmp	r5, #16
     4aa:	d1e1      	bne.n	470 <check_mem_access_rights_params+0x18>
/home/ldx1/dev/tee-fusion-repo/build/optee_os_ep-prefix/src/optee_os_ep/lib/libutee/tee_api.c:280
     4ac:	2000      	movs	r0, #0
/home/ldx1/dev/tee-fusion-repo/build/optee_os_ep-prefix/src/optee_os_ep/lib/libutee/tee_api.c:281
     4ae:	bdf0      	pop	{r4, r5, r6, r7, pc}
/home/ldx1/dev/tee-fusion-repo/build/optee_os_ep-prefix/src/optee_os_ep/lib/libutee/tee_api.c:259
     4b0:	2404      	movs	r4, #4
     4b2:	e7e7      	b.n	484 <check_mem_access_rights_params+0x2c>
/home/ldx1/dev/tee-fusion-repo/build/optee_os_ep-prefix/src/optee_os_ep/lib/libutee/tee_api.c:272
     4b4:	4800      	ldr	r0, [pc, #0]	@ (4b8 <check_mem_access_rights_params+0x60>)
     4b6:	e7fa      	b.n	4ae <check_mem_access_rights_params+0x56>
     4b8:	ffff0001 	.word	0xffff0001
     4bc:	0000ec24 	.word	0x0000ec24
     4c0:	00000034 	.word	0x00000034
     4c4:	00000048 	.word	0x00000048

000004c8 <buf_overlaps_no_share_heap>:
buf_overlaps_no_share_heap():
/home/ldx1/dev/tee-fusion-repo/build/optee_os_ep-prefix/src/optee_os_ep/lib/libutee/tee_api.c:284
     4c8:	460a      	mov	r2, r1
     4ca:	4907      	ldr	r1, [pc, #28]	@ (4e8 <buf_overlaps_no_share_heap+0x20>)
     4cc:	b508      	push	{r3, lr}
     4ce:	4603      	mov	r3, r0
/home/ldx1/dev/tee-fusion-repo/build/optee_os_ep-prefix/src/optee_os_ep/lib/libutee/tee_api.c:285
     4d0:	4806      	ldr	r0, [pc, #24]	@ (4ec <buf_overlaps_no_share_heap+0x24>)
/home/ldx1/dev/tee-fusion-repo/build/optee_os_ep-prefix/src/optee_os_ep/lib/libutee/tee_api.c:284
     4d2:	4479      	add	r1, pc
/home/ldx1/dev/tee-fusion-repo/build/optee_os_ep-prefix/src/optee_os_ep/lib/libutee/tee_api.c:285
     4d4:	5809      	ldr	r1, [r1, r0]
     4d6:	6808      	ldr	r0, [r1, #0]
/home/ldx1/dev/tee-fusion-repo/build/optee_os_ep-prefix/src/optee_os_ep/lib/libutee/tee_api.c:287
     4d8:	b110      	cbz	r0, 4e0 <buf_overlaps_no_share_heap+0x18>
/home/ldx1/dev/tee-fusion-repo/build/optee_os_ep-prefix/src/optee_os_ep/lib/libutee/tee_api.c:287 (discriminator 1)
     4da:	4619      	mov	r1, r3
     4dc:	f00b fa38 	bl	b950 <raw_malloc_buffer_overlaps_heap>
/home/ldx1/dev/tee-fusion-repo/build/optee_os_ep-prefix/src/optee_os_ep/lib/libutee/tee_api.c:288
     4e0:	f000 0001 	and.w	r0, r0, #1
     4e4:	bd08      	pop	{r3, pc}
     4e6:	bf00      	nop
     4e8:	0000ebb2 	.word	0x0000ebb2
     4ec:	00000040 	.word	0x00000040

000004f0 <check_invoke_param>:
check_invoke_param():
/home/ldx1/dev/tee-fusion-repo/build/optee_os_ep-prefix/src/optee_os_ep/lib/libutee/tee_api.c:291
     4f0:	e92d 43f8 	stmdb	sp!, {r3, r4, r5, r6, r7, r8, r9, lr}
     4f4:	4606      	mov	r6, r0
     4f6:	460d      	mov	r5, r1
     4f8:	2400      	movs	r4, #0
/home/ldx1/dev/tee-fusion-repo/build/optee_os_ep-prefix/src/optee_os_ep/lib/libutee/tee_api.c:297
     4fa:	f101 0804 	add.w	r8, r1, #4
/home/ldx1/dev/tee-fusion-repo/build/optee_os_ep-prefix/src/optee_os_ep/lib/libutee/tee_api.c:299
     4fe:	fa26 f304 	lsr.w	r3, r6, r4
     502:	f003 030f 	and.w	r3, r3, #15
     506:	2b05      	cmp	r3, #5
     508:	d01e      	beq.n	548 <check_invoke_param+0x58>
     50a:	3b06      	subs	r3, #6
     50c:	2b01      	cmp	r3, #1
     50e:	d816      	bhi.n	53e <check_invoke_param+0x4e>
     510:	2006      	movs	r0, #6
/home/ldx1/dev/tee-fusion-repo/build/optee_os_ep-prefix/src/optee_os_ep/lib/libutee/tee_api.c:296
     512:	f855 7014 	ldr.w	r7, [r5, r4, lsl #1]
/home/ldx1/dev/tee-fusion-repo/build/optee_os_ep-prefix/src/optee_os_ep/lib/libutee/tee_api.c:306
     516:	f040 0001 	orr.w	r0, r0, #1
/home/ldx1/dev/tee-fusion-repo/build/optee_os_ep-prefix/src/optee_os_ep/lib/libutee/tee_api.c:297
     51a:	f858 9014 	ldr.w	r9, [r8, r4, lsl #1]
/home/ldx1/dev/tee-fusion-repo/build/optee_os_ep-prefix/src/optee_os_ep/lib/libutee/tee_api.c:306
     51e:	4639      	mov	r1, r7
     520:	464a      	mov	r2, r9
     522:	f7ff ff99 	bl	458 <check_mem_access_rights_params>
/home/ldx1/dev/tee-fusion-repo/build/optee_os_ep-prefix/src/optee_os_ep/lib/libutee/tee_api.c:306 (discriminator 1)
     526:	b110      	cbz	r0, 52e <check_invoke_param+0x3e>
/home/ldx1/dev/tee-fusion-repo/build/optee_os_ep-prefix/src/optee_os_ep/lib/libutee/tee_api.c:307
     528:	2000      	movs	r0, #0
     52a:	f004 fb91 	bl	4c50 <TEE_Panic>
/home/ldx1/dev/tee-fusion-repo/build/optee_os_ep-prefix/src/optee_os_ep/lib/libutee/tee_api.c:308
     52e:	4649      	mov	r1, r9
     530:	4638      	mov	r0, r7
     532:	f7ff ffc9 	bl	4c8 <buf_overlaps_no_share_heap>
/home/ldx1/dev/tee-fusion-repo/build/optee_os_ep-prefix/src/optee_os_ep/lib/libutee/tee_api.c:308 (discriminator 1)
     536:	b110      	cbz	r0, 53e <check_invoke_param+0x4e>
/home/ldx1/dev/tee-fusion-repo/build/optee_os_ep-prefix/src/optee_os_ep/lib/libutee/tee_api.c:309
     538:	2000      	movs	r0, #0
     53a:	f004 fb89 	bl	4c50 <TEE_Panic>
/home/ldx1/dev/tee-fusion-repo/build/optee_os_ep-prefix/src/optee_os_ep/lib/libutee/tee_api.c:294 (discriminator 1)
     53e:	3404      	adds	r4, #4
     540:	2c10      	cmp	r4, #16
     542:	d1dc      	bne.n	4fe <check_invoke_param+0xe>
/home/ldx1/dev/tee-fusion-repo/build/optee_os_ep-prefix/src/optee_os_ep/lib/libutee/tee_api.c:315
     544:	e8bd 83f8 	ldmia.w	sp!, {r3, r4, r5, r6, r7, r8, r9, pc}
/home/ldx1/dev/tee-fusion-repo/build/optee_os_ep-prefix/src/optee_os_ep/lib/libutee/tee_api.c:295
     548:	2004      	movs	r0, #4
     54a:	e7e2      	b.n	512 <check_invoke_param+0x22>

0000054c <update_out_param>:
update_out_param():
/home/ldx1/dev/tee-fusion-repo/build/optee_os_ep-prefix/src/optee_os_ep/lib/libutee/tee_api.c:180
     54c:	e92d 47f0 	stmdb	sp!, {r4, r5, r6, r7, r8, r9, sl, lr}
     550:	4607      	mov	r7, r0
/home/ldx1/dev/tee-fusion-repo/build/optee_os_ep-prefix/src/optee_os_ep/lib/libutee/tee_api.c:182
     552:	f8d2 a000 	ldr.w	sl, [r2]
/home/ldx1/dev/tee-fusion-repo/build/optee_os_ep-prefix/src/optee_os_ep/lib/libutee/tee_api.c:180
     556:	4688      	mov	r8, r1
     558:	4614      	mov	r4, r2
     55a:	4606      	mov	r6, r0
/home/ldx1/dev/tee-fusion-repo/build/optee_os_ep-prefix/src/optee_os_ep/lib/libutee/tee_api.c:182
     55c:	2500      	movs	r5, #0
/home/ldx1/dev/tee-fusion-repo/build/optee_os_ep-prefix/src/optee_os_ep/lib/libutee/tee_api.c:188
     55e:	fa2a f305 	lsr.w	r3, sl, r5
/home/ldx1/dev/tee-fusion-repo/build/optee_os_ep-prefix/src/optee_os_ep/lib/libutee/tee_api.c:185
     562:	68a2      	ldr	r2, [r4, #8]
/home/ldx1/dev/tee-fusion-repo/build/optee_os_ep-prefix/src/optee_os_ep/lib/libutee/tee_api.c:186
     564:	f8d4 9010 	ldr.w	r9, [r4, #16]
/home/ldx1/dev/tee-fusion-repo/build/optee_os_ep-prefix/src/optee_os_ep/lib/libutee/tee_api.c:188
     568:	f013 0f0c 	tst.w	r3, #12
     56c:	d109      	bne.n	582 <update_out_param+0x36>
     56e:	f013 0f0e 	tst.w	r3, #14
     572:	d117      	bne.n	5a4 <update_out_param+0x58>
/home/ldx1/dev/tee-fusion-repo/build/optee_os_ep-prefix/src/optee_os_ep/lib/libutee/tee_api.c:184 (discriminator 1)
     574:	3504      	adds	r5, #4
     576:	3410      	adds	r4, #16
     578:	3608      	adds	r6, #8
     57a:	2d10      	cmp	r5, #16
     57c:	d1ef      	bne.n	55e <update_out_param+0x12>
/home/ldx1/dev/tee-fusion-repo/build/optee_os_ep-prefix/src/optee_os_ep/lib/libutee/tee_api.c:205
     57e:	e8bd 87f0 	ldmia.w	sp!, {r4, r5, r6, r7, r8, r9, sl, pc}
/home/ldx1/dev/tee-fusion-repo/build/optee_os_ep-prefix/src/optee_os_ep/lib/libutee/tee_api.c:188
     582:	f003 030f 	and.w	r3, r3, #15
     586:	3b06      	subs	r3, #6
     588:	2b01      	cmp	r3, #1
     58a:	d8f3      	bhi.n	574 <update_out_param+0x28>
/home/ldx1/dev/tee-fusion-repo/build/optee_os_ep-prefix/src/optee_os_ep/lib/libutee/tee_api.c:196
     58c:	f858 1005 	ldr.w	r1, [r8, r5]
     590:	b151      	cbz	r1, 5a8 <update_out_param+0x5c>
/home/ldx1/dev/tee-fusion-repo/build/optee_os_ep-prefix/src/optee_os_ep/lib/libutee/tee_api.c:198
     592:	6872      	ldr	r2, [r6, #4]
/home/ldx1/dev/tee-fusion-repo/build/optee_os_ep-prefix/src/optee_os_ep/lib/libutee/tee_api.c:197
     594:	f857 0015 	ldr.w	r0, [r7, r5, lsl #1]
     598:	454a      	cmp	r2, r9
     59a:	bf28      	it	cs
     59c:	464a      	movcs	r2, r9
     59e:	f7ff fe9f 	bl	2e0 <memcpy>
     5a2:	e001      	b.n	5a8 <update_out_param+0x5c>
/home/ldx1/dev/tee-fusion-repo/build/optee_os_ep-prefix/src/optee_os_ep/lib/libutee/tee_api.c:185
     5a4:	f847 2015 	str.w	r2, [r7, r5, lsl #1]
/home/ldx1/dev/tee-fusion-repo/build/optee_os_ep-prefix/src/optee_os_ep/lib/libutee/tee_api.c:199
     5a8:	f8c6 9004 	str.w	r9, [r6, #4]
/home/ldx1/dev/tee-fusion-repo/build/optee_os_ep-prefix/src/optee_os_ep/lib/libutee/tee_api.c:200
     5ac:	e7e2      	b.n	574 <update_out_param+0x28>

000005ae <update_out_gp11_param>:
update_out_gp11_param():
/home/ldx1/dev/tee-fusion-repo/build/optee_os_ep-prefix/src/optee_os_ep/lib/libutee/tee_api.c:210
     5ae:	e92d 47f0 	stmdb	sp!, {r4, r5, r6, r7, r8, r9, sl, lr}
     5b2:	4607      	mov	r7, r0
/home/ldx1/dev/tee-fusion-repo/build/optee_os_ep-prefix/src/optee_os_ep/lib/libutee/tee_api.c:212
     5b4:	f8d2 a000 	ldr.w	sl, [r2]
/home/ldx1/dev/tee-fusion-repo/build/optee_os_ep-prefix/src/optee_os_ep/lib/libutee/tee_api.c:210
     5b8:	4688      	mov	r8, r1
     5ba:	4614      	mov	r4, r2
     5bc:	4606      	mov	r6, r0
/home/ldx1/dev/tee-fusion-repo/build/optee_os_ep-prefix/src/optee_os_ep/lib/libutee/tee_api.c:212
     5be:	2500      	movs	r5, #0
/home/ldx1/dev/tee-fusion-repo/build/optee_os_ep-prefix/src/optee_os_ep/lib/libutee/tee_api.c:218
     5c0:	fa2a f305 	lsr.w	r3, sl, r5
/home/ldx1/dev/tee-fusion-repo/build/optee_os_ep-prefix/src/optee_os_ep/lib/libutee/tee_api.c:215
     5c4:	68a2      	ldr	r2, [r4, #8]
/home/ldx1/dev/tee-fusion-repo/build/optee_os_ep-prefix/src/optee_os_ep/lib/libutee/tee_api.c:216
     5c6:	f8d4 9010 	ldr.w	r9, [r4, #16]
/home/ldx1/dev/tee-fusion-repo/build/optee_os_ep-prefix/src/optee_os_ep/lib/libutee/tee_api.c:218
     5ca:	f013 0f0c 	tst.w	r3, #12
     5ce:	d109      	bne.n	5e4 <update_out_gp11_param+0x36>
     5d0:	f013 0f0e 	tst.w	r3, #14
     5d4:	d117      	bne.n	606 <update_out_gp11_param+0x58>
/home/ldx1/dev/tee-fusion-repo/build/optee_os_ep-prefix/src/optee_os_ep/lib/libutee/tee_api.c:214 (discriminator 1)
     5d6:	3504      	adds	r5, #4
     5d8:	3410      	adds	r4, #16
     5da:	3608      	adds	r6, #8
     5dc:	2d10      	cmp	r5, #16
     5de:	d1ef      	bne.n	5c0 <update_out_gp11_param+0x12>
/home/ldx1/dev/tee-fusion-repo/build/optee_os_ep-prefix/src/optee_os_ep/lib/libutee/tee_api.c:235
     5e0:	e8bd 87f0 	ldmia.w	sp!, {r4, r5, r6, r7, r8, r9, sl, pc}
/home/ldx1/dev/tee-fusion-repo/build/optee_os_ep-prefix/src/optee_os_ep/lib/libutee/tee_api.c:218
     5e4:	f003 030f 	and.w	r3, r3, #15
     5e8:	3b06      	subs	r3, #6
     5ea:	2b01      	cmp	r3, #1
     5ec:	d8f3      	bhi.n	5d6 <update_out_gp11_param+0x28>
/home/ldx1/dev/tee-fusion-repo/build/optee_os_ep-prefix/src/optee_os_ep/lib/libutee/tee_api.c:226
     5ee:	f858 1005 	ldr.w	r1, [r8, r5]
     5f2:	b151      	cbz	r1, 60a <update_out_gp11_param+0x5c>
/home/ldx1/dev/tee-fusion-repo/build/optee_os_ep-prefix/src/optee_os_ep/lib/libutee/tee_api.c:228
     5f4:	6872      	ldr	r2, [r6, #4]
/home/ldx1/dev/tee-fusion-repo/build/optee_os_ep-prefix/src/optee_os_ep/lib/libutee/tee_api.c:227
     5f6:	f857 0015 	ldr.w	r0, [r7, r5, lsl #1]
     5fa:	454a      	cmp	r2, r9
     5fc:	bf28      	it	cs
     5fe:	464a      	movcs	r2, r9
     600:	f7ff fe6e 	bl	2e0 <memcpy>
     604:	e001      	b.n	60a <update_out_gp11_param+0x5c>
/home/ldx1/dev/tee-fusion-repo/build/optee_os_ep-prefix/src/optee_os_ep/lib/libutee/tee_api.c:215
     606:	f847 2015 	str.w	r2, [r7, r5, lsl #1]
/home/ldx1/dev/tee-fusion-repo/build/optee_os_ep-prefix/src/optee_os_ep/lib/libutee/tee_api.c:229
     60a:	f8c6 9004 	str.w	r9, [r6, #4]
/home/ldx1/dev/tee-fusion-repo/build/optee_os_ep-prefix/src/optee_os_ep/lib/libutee/tee_api.c:230
     60e:	e7e2      	b.n	5d6 <update_out_gp11_param+0x28>

00000610 <TEE_CloseTASession>:
TEE_CloseTASession():
/home/ldx1/dev/tee-fusion-repo/build/optee_os_ep-prefix/src/optee_os_ep/lib/libutee/tee_api.c:414
     610:	b508      	push	{r3, lr}
/home/ldx1/dev/tee-fusion-repo/build/optee_os_ep-prefix/src/optee_os_ep/lib/libutee/tee_api.c:415
     612:	b130      	cbz	r0, 622 <TEE_CloseTASession+0x12>
/home/ldx1/dev/tee-fusion-repo/build/optee_os_ep-prefix/src/optee_os_ep/lib/libutee/tee_api.c:416
     614:	f004 ef38 	blx	5488 <_utee_close_ta_session>
/home/ldx1/dev/tee-fusion-repo/build/optee_os_ep-prefix/src/optee_os_ep/lib/libutee/tee_api.c:418
     618:	b118      	cbz	r0, 622 <TEE_CloseTASession+0x12>
/home/ldx1/dev/tee-fusion-repo/build/optee_os_ep-prefix/src/optee_os_ep/lib/libutee/tee_api.c:421
     61a:	e8bd 4008 	ldmia.w	sp!, {r3, lr}
/home/ldx1/dev/tee-fusion-repo/build/optee_os_ep-prefix/src/optee_os_ep/lib/libutee/tee_api.c:419
     61e:	f004 bb17 	b.w	4c50 <TEE_Panic>
/home/ldx1/dev/tee-fusion-repo/build/optee_os_ep-prefix/src/optee_os_ep/lib/libutee/tee_api.c:421
     622:	bd08      	pop	{r3, pc}

00000624 <TEE_GetCancellationFlag>:
TEE_GetCancellationFlag():
/home/ldx1/dev/tee-fusion-repo/build/optee_os_ep-prefix/src/optee_os_ep/lib/libutee/tee_api.c:530
     624:	b507      	push	{r0, r1, r2, lr}
     626:	4a10      	ldr	r2, [pc, #64]	@ (668 <TEE_GetCancellationFlag+0x44>)
     628:	4b10      	ldr	r3, [pc, #64]	@ (66c <TEE_GetCancellationFlag+0x48>)
/home/ldx1/dev/tee-fusion-repo/build/optee_os_ep-prefix/src/optee_os_ep/lib/libutee/tee_api.c:532
     62a:	4668      	mov	r0, sp
/home/ldx1/dev/tee-fusion-repo/build/optee_os_ep-prefix/src/optee_os_ep/lib/libutee/tee_api.c:530
     62c:	447a      	add	r2, pc
     62e:	58d3      	ldr	r3, [r2, r3]
     630:	681b      	ldr	r3, [r3, #0]
     632:	9301      	str	r3, [sp, #4]
     634:	f04f 0300 	mov.w	r3, #0
/home/ldx1/dev/tee-fusion-repo/build/optee_os_ep-prefix/src/optee_os_ep/lib/libutee/tee_api.c:532
     638:	f004 ef3c 	blx	54b4 <_utee_get_cancellation_flag>
/home/ldx1/dev/tee-fusion-repo/build/optee_os_ep-prefix/src/optee_os_ep/lib/libutee/tee_api.c:534
     63c:	b108      	cbz	r0, 642 <TEE_GetCancellationFlag+0x1e>
/home/ldx1/dev/tee-fusion-repo/build/optee_os_ep-prefix/src/optee_os_ep/lib/libutee/tee_api.c:535
     63e:	2300      	movs	r3, #0
     640:	9300      	str	r3, [sp, #0]
/home/ldx1/dev/tee-fusion-repo/build/optee_os_ep-prefix/src/optee_os_ep/lib/libutee/tee_api.c:530
     642:	4a0b      	ldr	r2, [pc, #44]	@ (670 <TEE_GetCancellationFlag+0x4c>)
/home/ldx1/dev/tee-fusion-repo/build/optee_os_ep-prefix/src/optee_os_ep/lib/libutee/tee_api.c:537
     644:	4b09      	ldr	r3, [pc, #36]	@ (66c <TEE_GetCancellationFlag+0x48>)
/home/ldx1/dev/tee-fusion-repo/build/optee_os_ep-prefix/src/optee_os_ep/lib/libutee/tee_api.c:530
     646:	447a      	add	r2, pc
/home/ldx1/dev/tee-fusion-repo/build/optee_os_ep-prefix/src/optee_os_ep/lib/libutee/tee_api.c:536
     648:	9800      	ldr	r0, [sp, #0]
     64a:	3800      	subs	r0, #0
/home/ldx1/dev/tee-fusion-repo/build/optee_os_ep-prefix/src/optee_os_ep/lib/libutee/tee_api.c:537
     64c:	58d3      	ldr	r3, [r2, r3]
/home/ldx1/dev/tee-fusion-repo/build/optee_os_ep-prefix/src/optee_os_ep/lib/libutee/tee_api.c:536
     64e:	bf18      	it	ne
     650:	2001      	movne	r0, #1
/home/ldx1/dev/tee-fusion-repo/build/optee_os_ep-prefix/src/optee_os_ep/lib/libutee/tee_api.c:537
     652:	681a      	ldr	r2, [r3, #0]
     654:	9b01      	ldr	r3, [sp, #4]
     656:	405a      	eors	r2, r3
     658:	f04f 0300 	mov.w	r3, #0
     65c:	d001      	beq.n	662 <TEE_GetCancellationFlag+0x3e>
     65e:	f7ff fe37 	bl	2d0 <__stack_chk_fail>
     662:	b003      	add	sp, #12
     664:	f85d fb04 	ldr.w	pc, [sp], #4
     668:	0000ea58 	.word	0x0000ea58
     66c:	0000000c 	.word	0x0000000c
     670:	0000ea3e 	.word	0x0000ea3e

00000674 <TEE_UnmaskCancellation>:
TEE_UnmaskCancellation():
/home/ldx1/dev/tee-fusion-repo/build/optee_os_ep-prefix/src/optee_os_ep/lib/libutee/tee_api.c:540
     674:	b507      	push	{r0, r1, r2, lr}
     676:	4a10      	ldr	r2, [pc, #64]	@ (6b8 <TEE_UnmaskCancellation+0x44>)
     678:	4b10      	ldr	r3, [pc, #64]	@ (6bc <TEE_UnmaskCancellation+0x48>)
/home/ldx1/dev/tee-fusion-repo/build/optee_os_ep-prefix/src/optee_os_ep/lib/libutee/tee_api.c:542
     67a:	4668      	mov	r0, sp
/home/ldx1/dev/tee-fusion-repo/build/optee_os_ep-prefix/src/optee_os_ep/lib/libutee/tee_api.c:540
     67c:	447a      	add	r2, pc
     67e:	58d3      	ldr	r3, [r2, r3]
     680:	681b      	ldr	r3, [r3, #0]
     682:	9301      	str	r3, [sp, #4]
     684:	f04f 0300 	mov.w	r3, #0
/home/ldx1/dev/tee-fusion-repo/build/optee_os_ep-prefix/src/optee_os_ep/lib/libutee/tee_api.c:542
     688:	f004 ef28 	blx	54dc <_utee_unmask_cancellation>
/home/ldx1/dev/tee-fusion-repo/build/optee_os_ep-prefix/src/optee_os_ep/lib/libutee/tee_api.c:544
     68c:	b108      	cbz	r0, 692 <TEE_UnmaskCancellation+0x1e>
/home/ldx1/dev/tee-fusion-repo/build/optee_os_ep-prefix/src/optee_os_ep/lib/libutee/tee_api.c:545
     68e:	f004 fadf 	bl	4c50 <TEE_Panic>
/home/ldx1/dev/tee-fusion-repo/build/optee_os_ep-prefix/src/optee_os_ep/lib/libutee/tee_api.c:540
     692:	4a0b      	ldr	r2, [pc, #44]	@ (6c0 <TEE_UnmaskCancellation+0x4c>)
/home/ldx1/dev/tee-fusion-repo/build/optee_os_ep-prefix/src/optee_os_ep/lib/libutee/tee_api.c:547
     694:	4b09      	ldr	r3, [pc, #36]	@ (6bc <TEE_UnmaskCancellation+0x48>)
/home/ldx1/dev/tee-fusion-repo/build/optee_os_ep-prefix/src/optee_os_ep/lib/libutee/tee_api.c:540
     696:	447a      	add	r2, pc
/home/ldx1/dev/tee-fusion-repo/build/optee_os_ep-prefix/src/optee_os_ep/lib/libutee/tee_api.c:546
     698:	9800      	ldr	r0, [sp, #0]
     69a:	3800      	subs	r0, #0
/home/ldx1/dev/tee-fusion-repo/build/optee_os_ep-prefix/src/optee_os_ep/lib/libutee/tee_api.c:547
     69c:	58d3      	ldr	r3, [r2, r3]
/home/ldx1/dev/tee-fusion-repo/build/optee_os_ep-prefix/src/optee_os_ep/lib/libutee/tee_api.c:546
     69e:	bf18      	it	ne
     6a0:	2001      	movne	r0, #1
/home/ldx1/dev/tee-fusion-repo/build/optee_os_ep-prefix/src/optee_os_ep/lib/libutee/tee_api.c:547
     6a2:	681a      	ldr	r2, [r3, #0]
     6a4:	9b01      	ldr	r3, [sp, #4]
     6a6:	405a      	eors	r2, r3
     6a8:	f04f 0300 	mov.w	r3, #0
     6ac:	d001      	beq.n	6b2 <TEE_UnmaskCancellation+0x3e>
     6ae:	f7ff fe0f 	bl	2d0 <__stack_chk_fail>
     6b2:	b003      	add	sp, #12
     6b4:	f85d fb04 	ldr.w	pc, [sp], #4
     6b8:	0000ea08 	.word	0x0000ea08
     6bc:	0000000c 	.word	0x0000000c
     6c0:	0000e9ee 	.word	0x0000e9ee

000006c4 <TEE_MaskCancellation>:
TEE_MaskCancellation():
/home/ldx1/dev/tee-fusion-repo/build/optee_os_ep-prefix/src/optee_os_ep/lib/libutee/tee_api.c:550
     6c4:	b507      	push	{r0, r1, r2, lr}
     6c6:	4a10      	ldr	r2, [pc, #64]	@ (708 <TEE_MaskCancellation+0x44>)
     6c8:	4b10      	ldr	r3, [pc, #64]	@ (70c <TEE_MaskCancellation+0x48>)
/home/ldx1/dev/tee-fusion-repo/build/optee_os_ep-prefix/src/optee_os_ep/lib/libutee/tee_api.c:552
     6ca:	4668      	mov	r0, sp
/home/ldx1/dev/tee-fusion-repo/build/optee_os_ep-prefix/src/optee_os_ep/lib/libutee/tee_api.c:550
     6cc:	447a      	add	r2, pc
     6ce:	58d3      	ldr	r3, [r2, r3]
     6d0:	681b      	ldr	r3, [r3, #0]
     6d2:	9301      	str	r3, [sp, #4]
     6d4:	f04f 0300 	mov.w	r3, #0
/home/ldx1/dev/tee-fusion-repo/build/optee_os_ep-prefix/src/optee_os_ep/lib/libutee/tee_api.c:552
     6d8:	f004 ef0a 	blx	54f0 <_utee_mask_cancellation>
/home/ldx1/dev/tee-fusion-repo/build/optee_os_ep-prefix/src/optee_os_ep/lib/libutee/tee_api.c:554
     6dc:	b108      	cbz	r0, 6e2 <TEE_MaskCancellation+0x1e>
/home/ldx1/dev/tee-fusion-repo/build/optee_os_ep-prefix/src/optee_os_ep/lib/libutee/tee_api.c:555
     6de:	f004 fab7 	bl	4c50 <TEE_Panic>
/home/ldx1/dev/tee-fusion-repo/build/optee_os_ep-prefix/src/optee_os_ep/lib/libutee/tee_api.c:550
     6e2:	4a0b      	ldr	r2, [pc, #44]	@ (710 <TEE_MaskCancellation+0x4c>)
/home/ldx1/dev/tee-fusion-repo/build/optee_os_ep-prefix/src/optee_os_ep/lib/libutee/tee_api.c:557
     6e4:	4b09      	ldr	r3, [pc, #36]	@ (70c <TEE_MaskCancellation+0x48>)
/home/ldx1/dev/tee-fusion-repo/build/optee_os_ep-prefix/src/optee_os_ep/lib/libutee/tee_api.c:550
     6e6:	447a      	add	r2, pc
/home/ldx1/dev/tee-fusion-repo/build/optee_os_ep-prefix/src/optee_os_ep/lib/libutee/tee_api.c:556
     6e8:	9800      	ldr	r0, [sp, #0]
     6ea:	3800      	subs	r0, #0
/home/ldx1/dev/tee-fusion-repo/build/optee_os_ep-prefix/src/optee_os_ep/lib/libutee/tee_api.c:557
     6ec:	58d3      	ldr	r3, [r2, r3]
/home/ldx1/dev/tee-fusion-repo/build/optee_os_ep-prefix/src/optee_os_ep/lib/libutee/tee_api.c:556
     6ee:	bf18      	it	ne
     6f0:	2001      	movne	r0, #1
/home/ldx1/dev/tee-fusion-repo/build/optee_os_ep-prefix/src/optee_os_ep/lib/libutee/tee_api.c:557
     6f2:	681a      	ldr	r2, [r3, #0]
     6f4:	9b01      	ldr	r3, [sp, #4]
     6f6:	405a      	eors	r2, r3
     6f8:	f04f 0300 	mov.w	r3, #0
     6fc:	d001      	beq.n	702 <TEE_MaskCancellation+0x3e>
     6fe:	f7ff fde7 	bl	2d0 <__stack_chk_fail>
     702:	b003      	add	sp, #12
     704:	f85d fb04 	ldr.w	pc, [sp], #4
     708:	0000e9b8 	.word	0x0000e9b8
     70c:	0000000c 	.word	0x0000000c
     710:	0000e99e 	.word	0x0000e99e

00000714 <TEE_CheckMemoryAccessRights>:
TEE_CheckMemoryAccessRights():
/home/ldx1/dev/tee-fusion-repo/build/optee_os_ep-prefix/src/optee_os_ep/lib/libutee/tee_api.c:563
     714:	b570      	push	{r4, r5, r6, lr}
     716:	4606      	mov	r6, r0
     718:	460d      	mov	r5, r1
/home/ldx1/dev/tee-fusion-repo/build/optee_os_ep-prefix/src/optee_os_ep/lib/libutee/tee_api.c:566
     71a:	4614      	mov	r4, r2
     71c:	b90a      	cbnz	r2, 722 <TEE_CheckMemoryAccessRights+0xe>
/home/ldx1/dev/tee-fusion-repo/build/optee_os_ep-prefix/src/optee_os_ep/lib/libutee/tee_api.c:567
     71e:	2000      	movs	r0, #0
/home/ldx1/dev/tee-fusion-repo/build/optee_os_ep-prefix/src/optee_os_ep/lib/libutee/tee_api.c:592
     720:	bd70      	pop	{r4, r5, r6, pc}
/home/ldx1/dev/tee-fusion-repo/build/optee_os_ep-prefix/src/optee_os_ep/lib/libutee/tee_api.c:573
     722:	f004 eed2 	blx	54c8 <_utee_check_access_rights>
/home/ldx1/dev/tee-fusion-repo/build/optee_os_ep-prefix/src/optee_os_ep/lib/libutee/tee_api.c:573 (discriminator 1)
     726:	b108      	cbz	r0, 72c <TEE_CheckMemoryAccessRights+0x18>
/home/ldx1/dev/tee-fusion-repo/build/optee_os_ep-prefix/src/optee_os_ep/lib/libutee/tee_api.c:574
     728:	480b      	ldr	r0, [pc, #44]	@ (758 <TEE_CheckMemoryAccessRights+0x44>)
     72a:	e7f9      	b.n	720 <TEE_CheckMemoryAccessRights+0xc>
/home/ldx1/dev/tee-fusion-repo/build/optee_os_ep-prefix/src/optee_os_ep/lib/libutee/tee_api.c:584
     72c:	4622      	mov	r2, r4
     72e:	4629      	mov	r1, r5
     730:	f006 0007 	and.w	r0, r6, #7
     734:	f7ff fe90 	bl	458 <check_mem_access_rights_params>
/home/ldx1/dev/tee-fusion-repo/build/optee_os_ep-prefix/src/optee_os_ep/lib/libutee/tee_api.c:584 (discriminator 1)
     738:	2800      	cmp	r0, #0
     73a:	d1f5      	bne.n	728 <TEE_CheckMemoryAccessRights+0x14>
/home/ldx1/dev/tee-fusion-repo/build/optee_os_ep-prefix/src/optee_os_ep/lib/libutee/tee_api.c:587
     73c:	4621      	mov	r1, r4
     73e:	4628      	mov	r0, r5
     740:	f00b f9b2 	bl	baa8 <malloc_buffer_overlaps_heap>
/home/ldx1/dev/tee-fusion-repo/build/optee_os_ep-prefix/src/optee_os_ep/lib/libutee/tee_api.c:587 (discriminator 1)
     744:	2800      	cmp	r0, #0
     746:	d0ea      	beq.n	71e <TEE_CheckMemoryAccessRights+0xa>
/home/ldx1/dev/tee-fusion-repo/build/optee_os_ep-prefix/src/optee_os_ep/lib/libutee/tee_api.c:588
     748:	4621      	mov	r1, r4
     74a:	4628      	mov	r0, r5
     74c:	f00b f9a2 	bl	ba94 <malloc_buffer_is_within_alloced>
/home/ldx1/dev/tee-fusion-repo/build/optee_os_ep-prefix/src/optee_os_ep/lib/libutee/tee_api.c:587 (discriminator 1)
     750:	2800      	cmp	r0, #0
     752:	d1e4      	bne.n	71e <TEE_CheckMemoryAccessRights+0xa>
     754:	e7e8      	b.n	728 <TEE_CheckMemoryAccessRights+0x14>
     756:	bf00      	nop
     758:	ffff0001 	.word	0xffff0001

0000075c <map_tmp_param>:
map_tmp_param():
/home/ldx1/dev/tee-fusion-repo/build/optee_os_ep-prefix/src/optee_os_ep/lib/libutee/tee_api.c:98
     75c:	e92d 4ff0 	stmdb	sp!, {r4, r5, r6, r7, r8, r9, sl, fp, lr}
     760:	4691      	mov	r9, r2
     762:	4a3f      	ldr	r2, [pc, #252]	@ (860 <map_tmp_param+0x104>)
     764:	4698      	mov	r8, r3
     766:	4b3f      	ldr	r3, [pc, #252]	@ (864 <map_tmp_param+0x108>)
     768:	447a      	add	r2, pc
     76a:	b085      	sub	sp, #20
/home/ldx1/dev/tee-fusion-repo/build/optee_os_ep-prefix/src/optee_os_ep/lib/libutee/tee_api.c:103
     76c:	2400      	movs	r4, #0
/home/ldx1/dev/tee-fusion-repo/build/optee_os_ep-prefix/src/optee_os_ep/lib/libutee/tee_api.c:98
     76e:	4607      	mov	r7, r0
     770:	468a      	mov	sl, r1
     772:	4606      	mov	r6, r0
     774:	58d3      	ldr	r3, [r2, r3]
/home/ldx1/dev/tee-fusion-repo/build/optee_os_ep-prefix/src/optee_os_ep/lib/libutee/tee_api.c:115
     776:	4683      	mov	fp, r0
/home/ldx1/dev/tee-fusion-repo/build/optee_os_ep-prefix/src/optee_os_ep/lib/libutee/tee_api.c:116
     778:	4625      	mov	r5, r4
/home/ldx1/dev/tee-fusion-repo/build/optee_os_ep-prefix/src/optee_os_ep/lib/libutee/tee_api.c:98
     77a:	681b      	ldr	r3, [r3, #0]
     77c:	9303      	str	r3, [sp, #12]
     77e:	f04f 0300 	mov.w	r3, #0
/home/ldx1/dev/tee-fusion-repo/build/optee_os_ep-prefix/src/optee_os_ep/lib/libutee/tee_api.c:117
     782:	4623      	mov	r3, r4
/home/ldx1/dev/tee-fusion-repo/build/optee_os_ep-prefix/src/optee_os_ep/lib/libutee/tee_api.c:114
     784:	600c      	str	r4, [r1, #0]
/home/ldx1/dev/tee-fusion-repo/build/optee_os_ep-prefix/src/optee_os_ep/lib/libutee/tee_api.c:103
     786:	9402      	str	r4, [sp, #8]
/home/ldx1/dev/tee-fusion-repo/build/optee_os_ep-prefix/src/optee_os_ep/lib/libutee/tee_api.c:115
     788:	f8c9 4000 	str.w	r4, [r9]
/home/ldx1/dev/tee-fusion-repo/build/optee_os_ep-prefix/src/optee_os_ep/lib/libutee/tee_api.c:118
     78c:	683a      	ldr	r2, [r7, #0]
     78e:	00a9      	lsls	r1, r5, #2
/home/ldx1/dev/tee-fusion-repo/build/optee_os_ep-prefix/src/optee_os_ep/lib/libutee/tee_api.c:117
     790:	f848 3025 	str.w	r3, [r8, r5, lsl #2]
/home/ldx1/dev/tee-fusion-repo/build/optee_os_ep-prefix/src/optee_os_ep/lib/libutee/tee_api.c:118
     794:	40ca      	lsrs	r2, r1
     796:	f002 020f 	and.w	r2, r2, #15
     79a:	3a05      	subs	r2, #5
     79c:	2a02      	cmp	r2, #2
     79e:	d813      	bhi.n	7c8 <map_tmp_param+0x6c>
/home/ldx1/dev/tee-fusion-repo/build/optee_os_ep-prefix/src/optee_os_ep/lib/libutee/tee_api.c:122
     7a0:	f8db 1008 	ldr.w	r1, [fp, #8]
/home/ldx1/dev/tee-fusion-repo/build/optee_os_ep-prefix/src/optee_os_ep/lib/libutee/tee_api.c:133
     7a4:	b181      	cbz	r1, 7c8 <map_tmp_param+0x6c>
/home/ldx1/dev/tee-fusion-repo/build/optee_os_ep-prefix/src/optee_os_ep/lib/libutee/tee_api.c:123
     7a6:	f8db 2010 	ldr.w	r2, [fp, #16]
/home/ldx1/dev/tee-fusion-repo/build/optee_os_ep-prefix/src/optee_os_ep/lib/libutee/tee_api.c:133 (discriminator 1)
     7aa:	b16a      	cbz	r2, 7c8 <map_tmp_param+0x6c>
/home/ldx1/dev/tee-fusion-repo/build/optee_os_ep-prefix/src/optee_os_ep/lib/libutee/tee_api.c:134
     7ac:	2001      	movs	r0, #1
     7ae:	9201      	str	r2, [sp, #4]
     7b0:	f7ff ffb0 	bl	714 <TEE_CheckMemoryAccessRights>
/home/ldx1/dev/tee-fusion-repo/build/optee_os_ep-prefix/src/optee_os_ep/lib/libutee/tee_api.c:133 (discriminator 2)
     7b4:	2300      	movs	r3, #0
     7b6:	b938      	cbnz	r0, 7c8 <map_tmp_param+0x6c>
/home/ldx1/dev/tee-fusion-repo/build/optee_os_ep-prefix/src/optee_os_ep/lib/libutee/tee_api.c:136
     7b8:	9a01      	ldr	r2, [sp, #4]
/home/ldx1/dev/tee-fusion-repo/build/optee_os_ep-prefix/src/optee_os_ep/lib/libutee/tee_api.c:135
     7ba:	a902      	add	r1, sp, #8
     7bc:	2001      	movs	r0, #1
/home/ldx1/dev/tee-fusion-repo/build/optee_os_ep-prefix/src/optee_os_ep/lib/libutee/tee_api.c:136
     7be:	3207      	adds	r2, #7
     7c0:	f022 0207 	bic.w	r2, r2, #7
/home/ldx1/dev/tee-fusion-repo/build/optee_os_ep-prefix/src/optee_os_ep/lib/libutee/tee_api.c:135
     7c4:	5468      	strb	r0, [r5, r1]
/home/ldx1/dev/tee-fusion-repo/build/optee_os_ep-prefix/src/optee_os_ep/lib/libutee/tee_api.c:136
     7c6:	4414      	add	r4, r2
/home/ldx1/dev/tee-fusion-repo/build/optee_os_ep-prefix/src/optee_os_ep/lib/libutee/tee_api.c:116 (discriminator 2)
     7c8:	3501      	adds	r5, #1
/home/ldx1/dev/tee-fusion-repo/build/optee_os_ep-prefix/src/optee_os_ep/lib/libutee/tee_api.c:116 (discriminator 1)
     7ca:	f10b 0b10 	add.w	fp, fp, #16
     7ce:	2d04      	cmp	r5, #4
     7d0:	d1dc      	bne.n	78c <map_tmp_param+0x30>
/home/ldx1/dev/tee-fusion-repo/build/optee_os_ep-prefix/src/optee_os_ep/lib/libutee/tee_api.c:144
     7d2:	b3bc      	cbz	r4, 844 <map_tmp_param+0xe8>
/home/ldx1/dev/tee-fusion-repo/build/optee_os_ep-prefix/src/optee_os_ep/lib/libutee/tee_api.c:145
     7d4:	4629      	mov	r1, r5
     7d6:	4620      	mov	r0, r4
     7d8:	f004 fab2 	bl	4d40 <tee_map_zi>
/home/ldx1/dev/tee-fusion-repo/build/optee_os_ep-prefix/src/optee_os_ep/lib/libutee/tee_api.c:146
     7dc:	4605      	mov	r5, r0
     7de:	b3c0      	cbz	r0, 852 <map_tmp_param+0xf6>
/home/ldx1/dev/tee-fusion-repo/build/optee_os_ep-prefix/src/optee_os_ep/lib/libutee/tee_api.c:148
     7e0:	f8ca 0000 	str.w	r0, [sl]
/home/ldx1/dev/tee-fusion-repo/build/optee_os_ep-prefix/src/optee_os_ep/lib/libutee/tee_api.c:149
     7e4:	f8c9 4000 	str.w	r4, [r9]
/home/ldx1/dev/tee-fusion-repo/build/optee_os_ep-prefix/src/optee_os_ep/lib/libutee/tee_api.c:100
     7e8:	2400      	movs	r4, #0
/home/ldx1/dev/tee-fusion-repo/build/optee_os_ep-prefix/src/optee_os_ep/lib/libutee/tee_api.c:157
     7ea:	f10d 0a08 	add.w	sl, sp, #8
/home/ldx1/dev/tee-fusion-repo/build/optee_os_ep-prefix/src/optee_os_ep/lib/libutee/tee_api.c:163
     7ee:	46a3      	mov	fp, r4
/home/ldx1/dev/tee-fusion-repo/build/optee_os_ep-prefix/src/optee_os_ep/lib/libutee/tee_api.c:153
     7f0:	683b      	ldr	r3, [r7, #0]
     7f2:	00a2      	lsls	r2, r4, #2
     7f4:	40d3      	lsrs	r3, r2
     7f6:	f003 030f 	and.w	r3, r3, #15
     7fa:	1f5a      	subs	r2, r3, #5
     7fc:	2a02      	cmp	r2, #2
     7fe:	d810      	bhi.n	822 <map_tmp_param+0xc6>
/home/ldx1/dev/tee-fusion-repo/build/optee_os_ep-prefix/src/optee_os_ep/lib/libutee/tee_api.c:157
     800:	f814 200a 	ldrb.w	r2, [r4, sl]
     804:	b16a      	cbz	r2, 822 <map_tmp_param+0xc6>
/home/ldx1/dev/tee-fusion-repo/build/optee_os_ep-prefix/src/optee_os_ep/lib/libutee/tee_api.c:160
     806:	68b1      	ldr	r1, [r6, #8]
/home/ldx1/dev/tee-fusion-repo/build/optee_os_ep-prefix/src/optee_os_ep/lib/libutee/tee_api.c:164
     808:	2b06      	cmp	r3, #6
/home/ldx1/dev/tee-fusion-repo/build/optee_os_ep-prefix/src/optee_os_ep/lib/libutee/tee_api.c:159
     80a:	f8d6 9010 	ldr.w	r9, [r6, #16]
/home/ldx1/dev/tee-fusion-repo/build/optee_os_ep-prefix/src/optee_os_ep/lib/libutee/tee_api.c:161
     80e:	f848 5024 	str.w	r5, [r8, r4, lsl #2]
/home/ldx1/dev/tee-fusion-repo/build/optee_os_ep-prefix/src/optee_os_ep/lib/libutee/tee_api.c:163
     812:	e9c6 5b02 	strd	r5, fp, [r6, #8]
/home/ldx1/dev/tee-fusion-repo/build/optee_os_ep-prefix/src/optee_os_ep/lib/libutee/tee_api.c:164
     816:	d117      	bne.n	848 <map_tmp_param+0xec>
/home/ldx1/dev/tee-fusion-repo/build/optee_os_ep-prefix/src/optee_os_ep/lib/libutee/tee_api.c:162
     818:	f109 0907 	add.w	r9, r9, #7
     81c:	f029 0907 	bic.w	r9, r9, #7
     820:	444d      	add	r5, r9
/home/ldx1/dev/tee-fusion-repo/build/optee_os_ep-prefix/src/optee_os_ep/lib/libutee/tee_api.c:152 (discriminator 2)
     822:	3401      	adds	r4, #1
/home/ldx1/dev/tee-fusion-repo/build/optee_os_ep-prefix/src/optee_os_ep/lib/libutee/tee_api.c:152 (discriminator 1)
     824:	3610      	adds	r6, #16
     826:	2c04      	cmp	r4, #4
     828:	d1e2      	bne.n	7f0 <map_tmp_param+0x94>
/home/ldx1/dev/tee-fusion-repo/build/optee_os_ep-prefix/src/optee_os_ep/lib/libutee/tee_api.c:173
     82a:	2000      	movs	r0, #0
/home/ldx1/dev/tee-fusion-repo/build/optee_os_ep-prefix/src/optee_os_ep/lib/libutee/tee_api.c:98
     82c:	4a0e      	ldr	r2, [pc, #56]	@ (868 <map_tmp_param+0x10c>)
/home/ldx1/dev/tee-fusion-repo/build/optee_os_ep-prefix/src/optee_os_ep/lib/libutee/tee_api.c:175
     82e:	4b0d      	ldr	r3, [pc, #52]	@ (864 <map_tmp_param+0x108>)
/home/ldx1/dev/tee-fusion-repo/build/optee_os_ep-prefix/src/optee_os_ep/lib/libutee/tee_api.c:98
     830:	447a      	add	r2, pc
/home/ldx1/dev/tee-fusion-repo/build/optee_os_ep-prefix/src/optee_os_ep/lib/libutee/tee_api.c:175
     832:	58d3      	ldr	r3, [r2, r3]
     834:	681a      	ldr	r2, [r3, #0]
     836:	9b03      	ldr	r3, [sp, #12]
     838:	405a      	eors	r2, r3
     83a:	f04f 0300 	mov.w	r3, #0
     83e:	d00a      	beq.n	856 <map_tmp_param+0xfa>
     840:	f7ff fd46 	bl	2d0 <__stack_chk_fail>
/home/ldx1/dev/tee-fusion-repo/build/optee_os_ep-prefix/src/optee_os_ep/lib/libutee/tee_api.c:100
     844:	4625      	mov	r5, r4
     846:	e7cf      	b.n	7e8 <map_tmp_param+0x8c>
/home/ldx1/dev/tee-fusion-repo/build/optee_os_ep-prefix/src/optee_os_ep/lib/libutee/tee_api.c:166
     848:	464a      	mov	r2, r9
     84a:	4628      	mov	r0, r5
     84c:	f7ff fd48 	bl	2e0 <memcpy>
     850:	e7e2      	b.n	818 <map_tmp_param+0xbc>
/home/ldx1/dev/tee-fusion-repo/build/optee_os_ep-prefix/src/optee_os_ep/lib/libutee/tee_api.c:147
     852:	4802      	ldr	r0, [pc, #8]	@ (85c <map_tmp_param+0x100>)
     854:	e7ea      	b.n	82c <map_tmp_param+0xd0>
/home/ldx1/dev/tee-fusion-repo/build/optee_os_ep-prefix/src/optee_os_ep/lib/libutee/tee_api.c:175
     856:	b005      	add	sp, #20
     858:	e8bd 8ff0 	ldmia.w	sp!, {r4, r5, r6, r7, r8, r9, sl, fp, pc}
     85c:	ffff000c 	.word	0xffff000c
     860:	0000e91c 	.word	0x0000e91c
     864:	0000000c 	.word	0x0000000c
     868:	0000e854 	.word	0x0000e854

0000086c <TEE_OpenTASession>:
TEE_OpenTASession():
/home/ldx1/dev/tee-fusion-repo/build/optee_os_ep-prefix/src/optee_os_ep/lib/libutee/tee_api.c:323
     86c:	e92d 4ff0 	stmdb	sp!, {r4, r5, r6, r7, r8, r9, sl, fp, lr}
     870:	4614      	mov	r4, r2
     872:	4a32      	ldr	r2, [pc, #200]	@ (93c <TEE_OpenTASession+0xd0>)
     874:	461d      	mov	r5, r3
     876:	4b32      	ldr	r3, [pc, #200]	@ (940 <TEE_OpenTASession+0xd4>)
     878:	447a      	add	r2, pc
     87a:	b09f      	sub	sp, #124	@ 0x7c
/home/ldx1/dev/tee-fusion-repo/build/optee_os_ep-prefix/src/optee_os_ep/lib/libutee/tee_api.c:325
     87c:	ae0a      	add	r6, sp, #40	@ 0x28
/home/ldx1/dev/tee-fusion-repo/build/optee_os_ep-prefix/src/optee_os_ep/lib/libutee/tee_api.c:323
     87e:	4680      	mov	r8, r0
     880:	4689      	mov	r9, r1
/home/ldx1/dev/tee-fusion-repo/build/optee_os_ep-prefix/src/optee_os_ep/lib/libutee/tee_api.c:325
     882:	4630      	mov	r0, r6
/home/ldx1/dev/tee-fusion-repo/build/optee_os_ep-prefix/src/optee_os_ep/lib/libutee/tee_api.c:323
     884:	58d3      	ldr	r3, [r2, r3]
/home/ldx1/dev/tee-fusion-repo/build/optee_os_ep-prefix/src/optee_os_ep/lib/libutee/tee_api.c:325
     886:	2100      	movs	r1, #0
     888:	2248      	movs	r2, #72	@ 0x48
/home/ldx1/dev/tee-fusion-repo/build/optee_os_ep-prefix/src/optee_os_ep/lib/libutee/tee_api.c:329
     88a:	af06      	add	r7, sp, #24
/home/ldx1/dev/tee-fusion-repo/build/optee_os_ep-prefix/src/optee_os_ep/lib/libutee/tee_api.c:323
     88c:	681b      	ldr	r3, [r3, #0]
     88e:	931d      	str	r3, [sp, #116]	@ 0x74
     890:	f04f 0300 	mov.w	r3, #0
     894:	e9dd ab28 	ldrd	sl, fp, [sp, #160]	@ 0xa0
/home/ldx1/dev/tee-fusion-repo/build/optee_os_ep-prefix/src/optee_os_ep/lib/libutee/tee_api.c:325
     898:	f00b fecd 	bl	c636 <memset>
/home/ldx1/dev/tee-fusion-repo/build/optee_os_ep-prefix/src/optee_os_ep/lib/libutee/tee_api.c:329
     89c:	efc0 0010 	vmov.i32	d16, #0	@ 0x00000000
/home/ldx1/dev/tee-fusion-repo/build/optee_os_ep-prefix/src/optee_os_ep/lib/libutee/tee_api.c:326
     8a0:	2300      	movs	r3, #0
     8a2:	9303      	str	r3, [sp, #12]
/home/ldx1/dev/tee-fusion-repo/build/optee_os_ep-prefix/src/optee_os_ep/lib/libutee/tee_api.c:328
     8a4:	e9cd 3304 	strd	r3, r3, [sp, #16]
/home/ldx1/dev/tee-fusion-repo/build/optee_os_ep-prefix/src/optee_os_ep/lib/libutee/tee_api.c:329
     8a8:	edcd 0b06 	vstr	d16, [sp, #24]
     8ac:	edc7 0b02 	vstr	d16, [r7, #8]
/home/ldx1/dev/tee-fusion-repo/build/optee_os_ep-prefix/src/optee_os_ep/lib/libutee/tee_api.c:331
     8b0:	b13c      	cbz	r4, 8c2 <TEE_OpenTASession+0x56>
/home/ldx1/dev/tee-fusion-repo/build/optee_os_ep-prefix/src/optee_os_ep/lib/libutee/tee_api.c:332
     8b2:	2120      	movs	r1, #32
     8b4:	4628      	mov	r0, r5
     8b6:	f004 fa10 	bl	4cda <__utee_check_inout_annotation>
/home/ldx1/dev/tee-fusion-repo/build/optee_os_ep-prefix/src/optee_os_ep/lib/libutee/tee_api.c:335
     8ba:	4629      	mov	r1, r5
     8bc:	4620      	mov	r0, r4
     8be:	f7ff fe17 	bl	4f0 <check_invoke_param>
/home/ldx1/dev/tee-fusion-repo/build/optee_os_ep-prefix/src/optee_os_ep/lib/libutee/tee_api.c:337
     8c2:	2104      	movs	r1, #4
     8c4:	4650      	mov	r0, sl
     8c6:	f004 f9f0 	bl	4caa <__utee_check_out_annotation>
/home/ldx1/dev/tee-fusion-repo/build/optee_os_ep-prefix/src/optee_os_ep/lib/libutee/tee_api.c:339
     8ca:	4621      	mov	r1, r4
     8cc:	462a      	mov	r2, r5
     8ce:	4630      	mov	r0, r6
     8d0:	f7ff fd72 	bl	3b8 <copy_param>
/home/ldx1/dev/tee-fusion-repo/build/optee_os_ep-prefix/src/optee_os_ep/lib/libutee/tee_api.c:340
     8d4:	463b      	mov	r3, r7
     8d6:	aa05      	add	r2, sp, #20
     8d8:	a904      	add	r1, sp, #16
     8da:	4630      	mov	r0, r6
     8dc:	f7ff ff3e 	bl	75c <map_tmp_param>
/home/ldx1/dev/tee-fusion-repo/build/optee_os_ep-prefix/src/optee_os_ep/lib/libutee/tee_api.c:341
     8e0:	4604      	mov	r4, r0
     8e2:	b9b0      	cbnz	r0, 912 <TEE_OpenTASession+0xa6>
/home/ldx1/dev/tee-fusion-repo/build/optee_os_ep-prefix/src/optee_os_ep/lib/libutee/tee_api.c:343
     8e4:	ab03      	add	r3, sp, #12
     8e6:	4632      	mov	r2, r6
     8e8:	4649      	mov	r1, r9
     8ea:	4640      	mov	r0, r8
     8ec:	f8cd b000 	str.w	fp, [sp]
     8f0:	f004 edbe 	blx	5470 <_utee_open_ta_session>
/home/ldx1/dev/tee-fusion-repo/build/optee_os_ep-prefix/src/optee_os_ep/lib/libutee/tee_api.c:345
     8f4:	4632      	mov	r2, r6
/home/ldx1/dev/tee-fusion-repo/build/optee_os_ep-prefix/src/optee_os_ep/lib/libutee/tee_api.c:343
     8f6:	4604      	mov	r4, r0
/home/ldx1/dev/tee-fusion-repo/build/optee_os_ep-prefix/src/optee_os_ep/lib/libutee/tee_api.c:345
     8f8:	4639      	mov	r1, r7
     8fa:	4628      	mov	r0, r5
     8fc:	f7ff fe26 	bl	54c <update_out_param>
/home/ldx1/dev/tee-fusion-repo/build/optee_os_ep-prefix/src/optee_os_ep/lib/libutee/tee_api.c:346
     900:	9804      	ldr	r0, [sp, #16]
     902:	b128      	cbz	r0, 910 <TEE_OpenTASession+0xa4>
/home/ldx1/dev/tee-fusion-repo/build/optee_os_ep-prefix/src/optee_os_ep/lib/libutee/tee_api.c:347
     904:	9905      	ldr	r1, [sp, #20]
     906:	f004 fa51 	bl	4dac <tee_unmap>
/home/ldx1/dev/tee-fusion-repo/build/optee_os_ep-prefix/src/optee_os_ep/lib/libutee/tee_api.c:349
     90a:	b108      	cbz	r0, 910 <TEE_OpenTASession+0xa4>
/home/ldx1/dev/tee-fusion-repo/build/optee_os_ep-prefix/src/optee_os_ep/lib/libutee/tee_api.c:350
     90c:	f004 f9a0 	bl	4c50 <TEE_Panic>
/home/ldx1/dev/tee-fusion-repo/build/optee_os_ep-prefix/src/optee_os_ep/lib/libutee/tee_api.c:359
     910:	b10c      	cbz	r4, 916 <TEE_OpenTASession+0xaa>
/home/ldx1/dev/tee-fusion-repo/build/optee_os_ep-prefix/src/optee_os_ep/lib/libutee/tee_api.c:360
     912:	2300      	movs	r3, #0
     914:	9303      	str	r3, [sp, #12]
/home/ldx1/dev/tee-fusion-repo/build/optee_os_ep-prefix/src/optee_os_ep/lib/libutee/tee_api.c:362
     916:	9b03      	ldr	r3, [sp, #12]
/home/ldx1/dev/tee-fusion-repo/build/optee_os_ep-prefix/src/optee_os_ep/lib/libutee/tee_api.c:323
     918:	4a0a      	ldr	r2, [pc, #40]	@ (944 <TEE_OpenTASession+0xd8>)
/home/ldx1/dev/tee-fusion-repo/build/optee_os_ep-prefix/src/optee_os_ep/lib/libutee/tee_api.c:362
     91a:	f8ca 3000 	str.w	r3, [sl]
/home/ldx1/dev/tee-fusion-repo/build/optee_os_ep-prefix/src/optee_os_ep/lib/libutee/tee_api.c:364
     91e:	4b08      	ldr	r3, [pc, #32]	@ (940 <TEE_OpenTASession+0xd4>)
/home/ldx1/dev/tee-fusion-repo/build/optee_os_ep-prefix/src/optee_os_ep/lib/libutee/tee_api.c:323
     920:	447a      	add	r2, pc
/home/ldx1/dev/tee-fusion-repo/build/optee_os_ep-prefix/src/optee_os_ep/lib/libutee/tee_api.c:364
     922:	58d3      	ldr	r3, [r2, r3]
     924:	681a      	ldr	r2, [r3, #0]
     926:	9b1d      	ldr	r3, [sp, #116]	@ 0x74
     928:	405a      	eors	r2, r3
     92a:	f04f 0300 	mov.w	r3, #0
     92e:	d001      	beq.n	934 <TEE_OpenTASession+0xc8>
     930:	f7ff fcce 	bl	2d0 <__stack_chk_fail>
     934:	4620      	mov	r0, r4
     936:	b01f      	add	sp, #124	@ 0x7c
     938:	e8bd 8ff0 	ldmia.w	sp!, {r4, r5, r6, r7, r8, r9, sl, fp, pc}
     93c:	0000e80c 	.word	0x0000e80c
     940:	0000000c 	.word	0x0000000c
     944:	0000e764 	.word	0x0000e764

00000948 <__GP11_TEE_OpenTASession>:
__GP11_TEE_OpenTASession():
/home/ldx1/dev/tee-fusion-repo/build/optee_os_ep-prefix/src/optee_os_ep/lib/libutee/tee_api.c:372
     948:	e92d 4ff0 	stmdb	sp!, {r4, r5, r6, r7, r8, r9, sl, fp, lr}
     94c:	4614      	mov	r4, r2
     94e:	4a2f      	ldr	r2, [pc, #188]	@ (a0c <__GP11_TEE_OpenTASession+0xc4>)
     950:	461d      	mov	r5, r3
     952:	4b2f      	ldr	r3, [pc, #188]	@ (a10 <__GP11_TEE_OpenTASession+0xc8>)
     954:	447a      	add	r2, pc
     956:	b09f      	sub	sp, #124	@ 0x7c
/home/ldx1/dev/tee-fusion-repo/build/optee_os_ep-prefix/src/optee_os_ep/lib/libutee/tee_api.c:374
     958:	ae0a      	add	r6, sp, #40	@ 0x28
/home/ldx1/dev/tee-fusion-repo/build/optee_os_ep-prefix/src/optee_os_ep/lib/libutee/tee_api.c:372
     95a:	4680      	mov	r8, r0
     95c:	4689      	mov	r9, r1
/home/ldx1/dev/tee-fusion-repo/build/optee_os_ep-prefix/src/optee_os_ep/lib/libutee/tee_api.c:374
     95e:	4630      	mov	r0, r6
/home/ldx1/dev/tee-fusion-repo/build/optee_os_ep-prefix/src/optee_os_ep/lib/libutee/tee_api.c:372
     960:	58d3      	ldr	r3, [r2, r3]
/home/ldx1/dev/tee-fusion-repo/build/optee_os_ep-prefix/src/optee_os_ep/lib/libutee/tee_api.c:374
     962:	2100      	movs	r1, #0
     964:	2248      	movs	r2, #72	@ 0x48
/home/ldx1/dev/tee-fusion-repo/build/optee_os_ep-prefix/src/optee_os_ep/lib/libutee/tee_api.c:378
     966:	af06      	add	r7, sp, #24
/home/ldx1/dev/tee-fusion-repo/build/optee_os_ep-prefix/src/optee_os_ep/lib/libutee/tee_api.c:372
     968:	681b      	ldr	r3, [r3, #0]
     96a:	931d      	str	r3, [sp, #116]	@ 0x74
     96c:	f04f 0300 	mov.w	r3, #0
     970:	e9dd ab28 	ldrd	sl, fp, [sp, #160]	@ 0xa0
/home/ldx1/dev/tee-fusion-repo/build/optee_os_ep-prefix/src/optee_os_ep/lib/libutee/tee_api.c:374
     974:	f00b fe5f 	bl	c636 <memset>
/home/ldx1/dev/tee-fusion-repo/build/optee_os_ep-prefix/src/optee_os_ep/lib/libutee/tee_api.c:378
     978:	efc0 0010 	vmov.i32	d16, #0	@ 0x00000000
/home/ldx1/dev/tee-fusion-repo/build/optee_os_ep-prefix/src/optee_os_ep/lib/libutee/tee_api.c:375
     97c:	2300      	movs	r3, #0
     97e:	9303      	str	r3, [sp, #12]
/home/ldx1/dev/tee-fusion-repo/build/optee_os_ep-prefix/src/optee_os_ep/lib/libutee/tee_api.c:378
     980:	edcd 0b06 	vstr	d16, [sp, #24]
     984:	edc7 0b02 	vstr	d16, [r7, #8]
/home/ldx1/dev/tee-fusion-repo/build/optee_os_ep-prefix/src/optee_os_ep/lib/libutee/tee_api.c:380
     988:	b11c      	cbz	r4, 992 <__GP11_TEE_OpenTASession+0x4a>
/home/ldx1/dev/tee-fusion-repo/build/optee_os_ep-prefix/src/optee_os_ep/lib/libutee/tee_api.c:381
     98a:	2120      	movs	r1, #32
     98c:	4628      	mov	r0, r5
     98e:	f004 f9a4 	bl	4cda <__utee_check_inout_annotation>
/home/ldx1/dev/tee-fusion-repo/build/optee_os_ep-prefix/src/optee_os_ep/lib/libutee/tee_api.c:384
     992:	2104      	movs	r1, #4
     994:	4650      	mov	r0, sl
     996:	f004 f988 	bl	4caa <__utee_check_out_annotation>
/home/ldx1/dev/tee-fusion-repo/build/optee_os_ep-prefix/src/optee_os_ep/lib/libutee/tee_api.c:386
     99a:	4621      	mov	r1, r4
     99c:	462a      	mov	r2, r5
     99e:	4630      	mov	r0, r6
     9a0:	f7ff fd32 	bl	408 <copy_gp11_param>
/home/ldx1/dev/tee-fusion-repo/build/optee_os_ep-prefix/src/optee_os_ep/lib/libutee/tee_api.c:387
     9a4:	463b      	mov	r3, r7
     9a6:	aa05      	add	r2, sp, #20
     9a8:	a904      	add	r1, sp, #16
     9aa:	4630      	mov	r0, r6
     9ac:	f7ff fed6 	bl	75c <map_tmp_param>
/home/ldx1/dev/tee-fusion-repo/build/optee_os_ep-prefix/src/optee_os_ep/lib/libutee/tee_api.c:388
     9b0:	4604      	mov	r4, r0
     9b2:	b9b0      	cbnz	r0, 9e2 <__GP11_TEE_OpenTASession+0x9a>
/home/ldx1/dev/tee-fusion-repo/build/optee_os_ep-prefix/src/optee_os_ep/lib/libutee/tee_api.c:390
     9b4:	ab03      	add	r3, sp, #12
     9b6:	4632      	mov	r2, r6
     9b8:	4649      	mov	r1, r9
     9ba:	4640      	mov	r0, r8
     9bc:	f8cd b000 	str.w	fp, [sp]
     9c0:	f004 ed56 	blx	5470 <_utee_open_ta_session>
/home/ldx1/dev/tee-fusion-repo/build/optee_os_ep-prefix/src/optee_os_ep/lib/libutee/tee_api.c:392
     9c4:	4632      	mov	r2, r6
/home/ldx1/dev/tee-fusion-repo/build/optee_os_ep-prefix/src/optee_os_ep/lib/libutee/tee_api.c:390
     9c6:	4604      	mov	r4, r0
/home/ldx1/dev/tee-fusion-repo/build/optee_os_ep-prefix/src/optee_os_ep/lib/libutee/tee_api.c:392
     9c8:	4639      	mov	r1, r7
     9ca:	4628      	mov	r0, r5
     9cc:	f7ff fdef 	bl	5ae <update_out_gp11_param>
/home/ldx1/dev/tee-fusion-repo/build/optee_os_ep-prefix/src/optee_os_ep/lib/libutee/tee_api.c:393
     9d0:	9804      	ldr	r0, [sp, #16]
     9d2:	b128      	cbz	r0, 9e0 <__GP11_TEE_OpenTASession+0x98>
/home/ldx1/dev/tee-fusion-repo/build/optee_os_ep-prefix/src/optee_os_ep/lib/libutee/tee_api.c:394
     9d4:	9905      	ldr	r1, [sp, #20]
     9d6:	f004 f9e9 	bl	4dac <tee_unmap>
/home/ldx1/dev/tee-fusion-repo/build/optee_os_ep-prefix/src/optee_os_ep/lib/libutee/tee_api.c:396
     9da:	b108      	cbz	r0, 9e0 <__GP11_TEE_OpenTASession+0x98>
/home/ldx1/dev/tee-fusion-repo/build/optee_os_ep-prefix/src/optee_os_ep/lib/libutee/tee_api.c:397
     9dc:	f004 f938 	bl	4c50 <TEE_Panic>
/home/ldx1/dev/tee-fusion-repo/build/optee_os_ep-prefix/src/optee_os_ep/lib/libutee/tee_api.c:406
     9e0:	b10c      	cbz	r4, 9e6 <__GP11_TEE_OpenTASession+0x9e>
/home/ldx1/dev/tee-fusion-repo/build/optee_os_ep-prefix/src/optee_os_ep/lib/libutee/tee_api.c:407
     9e2:	2300      	movs	r3, #0
     9e4:	9303      	str	r3, [sp, #12]
/home/ldx1/dev/tee-fusion-repo/build/optee_os_ep-prefix/src/optee_os_ep/lib/libutee/tee_api.c:409
     9e6:	9b03      	ldr	r3, [sp, #12]
/home/ldx1/dev/tee-fusion-repo/build/optee_os_ep-prefix/src/optee_os_ep/lib/libutee/tee_api.c:372
     9e8:	4a0a      	ldr	r2, [pc, #40]	@ (a14 <__GP11_TEE_OpenTASession+0xcc>)
/home/ldx1/dev/tee-fusion-repo/build/optee_os_ep-prefix/src/optee_os_ep/lib/libutee/tee_api.c:409
     9ea:	f8ca 3000 	str.w	r3, [sl]
/home/ldx1/dev/tee-fusion-repo/build/optee_os_ep-prefix/src/optee_os_ep/lib/libutee/tee_api.c:411
     9ee:	4b08      	ldr	r3, [pc, #32]	@ (a10 <__GP11_TEE_OpenTASession+0xc8>)
/home/ldx1/dev/tee-fusion-repo/build/optee_os_ep-prefix/src/optee_os_ep/lib/libutee/tee_api.c:372
     9f0:	447a      	add	r2, pc
/home/ldx1/dev/tee-fusion-repo/build/optee_os_ep-prefix/src/optee_os_ep/lib/libutee/tee_api.c:411
     9f2:	58d3      	ldr	r3, [r2, r3]
     9f4:	681a      	ldr	r2, [r3, #0]
     9f6:	9b1d      	ldr	r3, [sp, #116]	@ 0x74
     9f8:	405a      	eors	r2, r3
     9fa:	f04f 0300 	mov.w	r3, #0
     9fe:	d001      	beq.n	a04 <__GP11_TEE_OpenTASession+0xbc>
     a00:	f7ff fc66 	bl	2d0 <__stack_chk_fail>
     a04:	4620      	mov	r0, r4
     a06:	b01f      	add	sp, #124	@ 0x7c
     a08:	e8bd 8ff0 	ldmia.w	sp!, {r4, r5, r6, r7, r8, r9, sl, fp, pc}
     a0c:	0000e730 	.word	0x0000e730
     a10:	0000000c 	.word	0x0000000c
     a14:	0000e694 	.word	0x0000e694

00000a18 <TEE_InvokeTACommand>:
TEE_InvokeTACommand():
/home/ldx1/dev/tee-fusion-repo/build/optee_os_ep-prefix/src/optee_os_ep/lib/libutee/tee_api.c:428
     a18:	e92d 4ff0 	stmdb	sp!, {r4, r5, r6, r7, r8, r9, sl, fp, lr}
     a1c:	4693      	mov	fp, r2
     a1e:	4a3a      	ldr	r2, [pc, #232]	@ (b08 <TEE_InvokeTACommand+0xf0>)
     a20:	461c      	mov	r4, r3
     a22:	4b3a      	ldr	r3, [pc, #232]	@ (b0c <TEE_InvokeTACommand+0xf4>)
     a24:	447a      	add	r2, pc
     a26:	b09f      	sub	sp, #124	@ 0x7c
/home/ldx1/dev/tee-fusion-repo/build/optee_os_ep-prefix/src/optee_os_ep/lib/libutee/tee_api.c:431
     a28:	ad0a      	add	r5, sp, #40	@ 0x28
/home/ldx1/dev/tee-fusion-repo/build/optee_os_ep-prefix/src/optee_os_ep/lib/libutee/tee_api.c:428
     a2a:	4681      	mov	r9, r0
     a2c:	468a      	mov	sl, r1
/home/ldx1/dev/tee-fusion-repo/build/optee_os_ep-prefix/src/optee_os_ep/lib/libutee/tee_api.c:431
     a2e:	4628      	mov	r0, r5
/home/ldx1/dev/tee-fusion-repo/build/optee_os_ep-prefix/src/optee_os_ep/lib/libutee/tee_api.c:428
     a30:	58d3      	ldr	r3, [r2, r3]
/home/ldx1/dev/tee-fusion-repo/build/optee_os_ep-prefix/src/optee_os_ep/lib/libutee/tee_api.c:431
     a32:	2100      	movs	r1, #0
     a34:	2248      	movs	r2, #72	@ 0x48
/home/ldx1/dev/tee-fusion-repo/build/optee_os_ep-prefix/src/optee_os_ep/lib/libutee/tee_api.c:434
     a36:	f10d 0818 	add.w	r8, sp, #24
/home/ldx1/dev/tee-fusion-repo/build/optee_os_ep-prefix/src/optee_os_ep/lib/libutee/tee_api.c:428
     a3a:	681b      	ldr	r3, [r3, #0]
     a3c:	931d      	str	r3, [sp, #116]	@ 0x74
     a3e:	f04f 0300 	mov.w	r3, #0
/home/ldx1/dev/tee-fusion-repo/build/optee_os_ep-prefix/src/optee_os_ep/lib/libutee/tee_api.c:430
     a42:	2303      	movs	r3, #3
/home/ldx1/dev/tee-fusion-repo/build/optee_os_ep-prefix/src/optee_os_ep/lib/libutee/tee_api.c:428
     a44:	e9dd 7628 	ldrd	r7, r6, [sp, #160]	@ 0xa0
/home/ldx1/dev/tee-fusion-repo/build/optee_os_ep-prefix/src/optee_os_ep/lib/libutee/tee_api.c:430
     a48:	9303      	str	r3, [sp, #12]
/home/ldx1/dev/tee-fusion-repo/build/optee_os_ep-prefix/src/optee_os_ep/lib/libutee/tee_api.c:431
     a4a:	f00b fdf4 	bl	c636 <memset>
/home/ldx1/dev/tee-fusion-repo/build/optee_os_ep-prefix/src/optee_os_ep/lib/libutee/tee_api.c:434
     a4e:	efc0 0010 	vmov.i32	d16, #0	@ 0x00000000
/home/ldx1/dev/tee-fusion-repo/build/optee_os_ep-prefix/src/optee_os_ep/lib/libutee/tee_api.c:432
     a52:	2300      	movs	r3, #0
/home/ldx1/dev/tee-fusion-repo/build/optee_os_ep-prefix/src/optee_os_ep/lib/libutee/tee_api.c:433
     a54:	e9cd 3304 	strd	r3, r3, [sp, #16]
/home/ldx1/dev/tee-fusion-repo/build/optee_os_ep-prefix/src/optee_os_ep/lib/libutee/tee_api.c:434
     a58:	edcd 0b06 	vstr	d16, [sp, #24]
     a5c:	edc8 0b02 	vstr	d16, [r8, #8]
/home/ldx1/dev/tee-fusion-repo/build/optee_os_ep-prefix/src/optee_os_ep/lib/libutee/tee_api.c:436
     a60:	b13c      	cbz	r4, a72 <TEE_InvokeTACommand+0x5a>
/home/ldx1/dev/tee-fusion-repo/build/optee_os_ep-prefix/src/optee_os_ep/lib/libutee/tee_api.c:437
     a62:	2120      	movs	r1, #32
     a64:	4638      	mov	r0, r7
     a66:	f004 f938 	bl	4cda <__utee_check_inout_annotation>
/home/ldx1/dev/tee-fusion-repo/build/optee_os_ep-prefix/src/optee_os_ep/lib/libutee/tee_api.c:440
     a6a:	4639      	mov	r1, r7
     a6c:	4620      	mov	r0, r4
     a6e:	f7ff fd3f 	bl	4f0 <check_invoke_param>
/home/ldx1/dev/tee-fusion-repo/build/optee_os_ep-prefix/src/optee_os_ep/lib/libutee/tee_api.c:442
     a72:	b11e      	cbz	r6, a7c <TEE_InvokeTACommand+0x64>
/home/ldx1/dev/tee-fusion-repo/build/optee_os_ep-prefix/src/optee_os_ep/lib/libutee/tee_api.c:443
     a74:	2104      	movs	r1, #4
     a76:	4630      	mov	r0, r6
     a78:	f004 f917 	bl	4caa <__utee_check_out_annotation>
/home/ldx1/dev/tee-fusion-repo/build/optee_os_ep-prefix/src/optee_os_ep/lib/libutee/tee_api.c:446
     a7c:	4621      	mov	r1, r4
     a7e:	463a      	mov	r2, r7
     a80:	4628      	mov	r0, r5
     a82:	f7ff fc99 	bl	3b8 <copy_param>
/home/ldx1/dev/tee-fusion-repo/build/optee_os_ep-prefix/src/optee_os_ep/lib/libutee/tee_api.c:447
     a86:	4643      	mov	r3, r8
     a88:	aa05      	add	r2, sp, #20
     a8a:	a904      	add	r1, sp, #16
     a8c:	4628      	mov	r0, r5
     a8e:	f7ff fe65 	bl	75c <map_tmp_param>
/home/ldx1/dev/tee-fusion-repo/build/optee_os_ep-prefix/src/optee_os_ep/lib/libutee/tee_api.c:448
     a92:	4604      	mov	r4, r0
     a94:	b9a8      	cbnz	r0, ac2 <TEE_InvokeTACommand+0xaa>
/home/ldx1/dev/tee-fusion-repo/build/optee_os_ep-prefix/src/optee_os_ep/lib/libutee/tee_api.c:450
     a96:	ab03      	add	r3, sp, #12
     a98:	465a      	mov	r2, fp
     a9a:	4651      	mov	r1, sl
     a9c:	9300      	str	r3, [sp, #0]
     a9e:	4648      	mov	r0, r9
     aa0:	462b      	mov	r3, r5
     aa2:	f004 ecfc 	blx	549c <_utee_invoke_ta_command>
/home/ldx1/dev/tee-fusion-repo/build/optee_os_ep-prefix/src/optee_os_ep/lib/libutee/tee_api.c:453
     aa6:	462a      	mov	r2, r5
/home/ldx1/dev/tee-fusion-repo/build/optee_os_ep-prefix/src/optee_os_ep/lib/libutee/tee_api.c:450
     aa8:	4604      	mov	r4, r0
/home/ldx1/dev/tee-fusion-repo/build/optee_os_ep-prefix/src/optee_os_ep/lib/libutee/tee_api.c:453
     aaa:	4641      	mov	r1, r8
     aac:	4638      	mov	r0, r7
     aae:	f7ff fd4d 	bl	54c <update_out_param>
/home/ldx1/dev/tee-fusion-repo/build/optee_os_ep-prefix/src/optee_os_ep/lib/libutee/tee_api.c:454
     ab2:	9804      	ldr	r0, [sp, #16]
     ab4:	b128      	cbz	r0, ac2 <TEE_InvokeTACommand+0xaa>
/home/ldx1/dev/tee-fusion-repo/build/optee_os_ep-prefix/src/optee_os_ep/lib/libutee/tee_api.c:455
     ab6:	9905      	ldr	r1, [sp, #20]
     ab8:	f004 f978 	bl	4dac <tee_unmap>
/home/ldx1/dev/tee-fusion-repo/build/optee_os_ep-prefix/src/optee_os_ep/lib/libutee/tee_api.c:457
     abc:	b108      	cbz	r0, ac2 <TEE_InvokeTACommand+0xaa>
/home/ldx1/dev/tee-fusion-repo/build/optee_os_ep-prefix/src/optee_os_ep/lib/libutee/tee_api.c:458
     abe:	f004 f8c7 	bl	4c50 <TEE_Panic>
/home/ldx1/dev/tee-fusion-repo/build/optee_os_ep-prefix/src/optee_os_ep/lib/libutee/tee_api.c:463
     ac2:	9b03      	ldr	r3, [sp, #12]
/home/ldx1/dev/tee-fusion-repo/build/optee_os_ep-prefix/src/optee_os_ep/lib/libutee/tee_api.c:462
     ac4:	b106      	cbz	r6, ac8 <TEE_InvokeTACommand+0xb0>
/home/ldx1/dev/tee-fusion-repo/build/optee_os_ep-prefix/src/optee_os_ep/lib/libutee/tee_api.c:463
     ac6:	6033      	str	r3, [r6, #0]
/home/ldx1/dev/tee-fusion-repo/build/optee_os_ep-prefix/src/optee_os_ep/lib/libutee/tee_api.c:465
     ac8:	2b04      	cmp	r3, #4
     aca:	d009      	beq.n	ae0 <TEE_InvokeTACommand+0xc8>
/home/ldx1/dev/tee-fusion-repo/build/optee_os_ep-prefix/src/optee_os_ep/lib/libutee/tee_api.c:468
     acc:	b144      	cbz	r4, ae0 <TEE_InvokeTACommand+0xc8>
/home/ldx1/dev/tee-fusion-repo/build/optee_os_ep-prefix/src/optee_os_ep/lib/libutee/tee_api.c:468 (discriminator 1)
     ace:	4b0c      	ldr	r3, [pc, #48]	@ (b00 <TEE_InvokeTACommand+0xe8>)
     ad0:	429c      	cmp	r4, r3
     ad2:	d005      	beq.n	ae0 <TEE_InvokeTACommand+0xc8>
/home/ldx1/dev/tee-fusion-repo/build/optee_os_ep-prefix/src/optee_os_ep/lib/libutee/tee_api.c:469
     ad4:	4b0b      	ldr	r3, [pc, #44]	@ (b04 <TEE_InvokeTACommand+0xec>)
     ad6:	429c      	cmp	r4, r3
     ad8:	d002      	beq.n	ae0 <TEE_InvokeTACommand+0xc8>
/home/ldx1/dev/tee-fusion-repo/build/optee_os_ep-prefix/src/optee_os_ep/lib/libutee/tee_api.c:471
     ada:	4620      	mov	r0, r4
     adc:	f004 f8b8 	bl	4c50 <TEE_Panic>
/home/ldx1/dev/tee-fusion-repo/build/optee_os_ep-prefix/src/optee_os_ep/lib/libutee/tee_api.c:428
     ae0:	4a0b      	ldr	r2, [pc, #44]	@ (b10 <TEE_InvokeTACommand+0xf8>)
/home/ldx1/dev/tee-fusion-repo/build/optee_os_ep-prefix/src/optee_os_ep/lib/libutee/tee_api.c:474
     ae2:	4b0a      	ldr	r3, [pc, #40]	@ (b0c <TEE_InvokeTACommand+0xf4>)
/home/ldx1/dev/tee-fusion-repo/build/optee_os_ep-prefix/src/optee_os_ep/lib/libutee/tee_api.c:428
     ae4:	447a      	add	r2, pc
/home/ldx1/dev/tee-fusion-repo/build/optee_os_ep-prefix/src/optee_os_ep/lib/libutee/tee_api.c:474
     ae6:	58d3      	ldr	r3, [r2, r3]
     ae8:	681a      	ldr	r2, [r3, #0]
     aea:	9b1d      	ldr	r3, [sp, #116]	@ 0x74
     aec:	405a      	eors	r2, r3
     aee:	f04f 0300 	mov.w	r3, #0
     af2:	d001      	beq.n	af8 <TEE_InvokeTACommand+0xe0>
     af4:	f7ff fbec 	bl	2d0 <__stack_chk_fail>
     af8:	4620      	mov	r0, r4
     afa:	b01f      	add	sp, #124	@ 0x7c
     afc:	e8bd 8ff0 	ldmia.w	sp!, {r4, r5, r6, r7, r8, r9, sl, fp, pc}
     b00:	ffff000c 	.word	0xffff000c
     b04:	ffff3024 	.word	0xffff3024
     b08:	0000e660 	.word	0x0000e660
     b0c:	0000000c 	.word	0x0000000c
     b10:	0000e5a0 	.word	0x0000e5a0

00000b14 <__GP11_TEE_InvokeTACommand>:
__GP11_TEE_InvokeTACommand():
/home/ldx1/dev/tee-fusion-repo/build/optee_os_ep-prefix/src/optee_os_ep/lib/libutee/tee_api.c:481
     b14:	e92d 4ff0 	stmdb	sp!, {r4, r5, r6, r7, r8, r9, sl, fp, lr}
     b18:	4693      	mov	fp, r2
     b1a:	4a37      	ldr	r2, [pc, #220]	@ (bf8 <__GP11_TEE_InvokeTACommand+0xe4>)
     b1c:	461c      	mov	r4, r3
     b1e:	4b37      	ldr	r3, [pc, #220]	@ (bfc <__GP11_TEE_InvokeTACommand+0xe8>)
     b20:	447a      	add	r2, pc
     b22:	b09f      	sub	sp, #124	@ 0x7c
/home/ldx1/dev/tee-fusion-repo/build/optee_os_ep-prefix/src/optee_os_ep/lib/libutee/tee_api.c:484
     b24:	ad0a      	add	r5, sp, #40	@ 0x28
/home/ldx1/dev/tee-fusion-repo/build/optee_os_ep-prefix/src/optee_os_ep/lib/libutee/tee_api.c:481
     b26:	4681      	mov	r9, r0
     b28:	468a      	mov	sl, r1
/home/ldx1/dev/tee-fusion-repo/build/optee_os_ep-prefix/src/optee_os_ep/lib/libutee/tee_api.c:484
     b2a:	4628      	mov	r0, r5
/home/ldx1/dev/tee-fusion-repo/build/optee_os_ep-prefix/src/optee_os_ep/lib/libutee/tee_api.c:481
     b2c:	58d3      	ldr	r3, [r2, r3]
/home/ldx1/dev/tee-fusion-repo/build/optee_os_ep-prefix/src/optee_os_ep/lib/libutee/tee_api.c:484
     b2e:	2100      	movs	r1, #0
     b30:	2248      	movs	r2, #72	@ 0x48
/home/ldx1/dev/tee-fusion-repo/build/optee_os_ep-prefix/src/optee_os_ep/lib/libutee/tee_api.c:487
     b32:	f10d 0818 	add.w	r8, sp, #24
/home/ldx1/dev/tee-fusion-repo/build/optee_os_ep-prefix/src/optee_os_ep/lib/libutee/tee_api.c:481
     b36:	681b      	ldr	r3, [r3, #0]
     b38:	931d      	str	r3, [sp, #116]	@ 0x74
     b3a:	f04f 0300 	mov.w	r3, #0
/home/ldx1/dev/tee-fusion-repo/build/optee_os_ep-prefix/src/optee_os_ep/lib/libutee/tee_api.c:483
     b3e:	2303      	movs	r3, #3
/home/ldx1/dev/tee-fusion-repo/build/optee_os_ep-prefix/src/optee_os_ep/lib/libutee/tee_api.c:481
     b40:	e9dd 7628 	ldrd	r7, r6, [sp, #160]	@ 0xa0
/home/ldx1/dev/tee-fusion-repo/build/optee_os_ep-prefix/src/optee_os_ep/lib/libutee/tee_api.c:483
     b44:	9303      	str	r3, [sp, #12]
/home/ldx1/dev/tee-fusion-repo/build/optee_os_ep-prefix/src/optee_os_ep/lib/libutee/tee_api.c:484
     b46:	f00b fd76 	bl	c636 <memset>
/home/ldx1/dev/tee-fusion-repo/build/optee_os_ep-prefix/src/optee_os_ep/lib/libutee/tee_api.c:487
     b4a:	efc0 0010 	vmov.i32	d16, #0	@ 0x00000000
     b4e:	edcd 0b06 	vstr	d16, [sp, #24]
     b52:	edc8 0b02 	vstr	d16, [r8, #8]
/home/ldx1/dev/tee-fusion-repo/build/optee_os_ep-prefix/src/optee_os_ep/lib/libutee/tee_api.c:489
     b56:	b11c      	cbz	r4, b60 <__GP11_TEE_InvokeTACommand+0x4c>
/home/ldx1/dev/tee-fusion-repo/build/optee_os_ep-prefix/src/optee_os_ep/lib/libutee/tee_api.c:490
     b58:	2120      	movs	r1, #32
     b5a:	4638      	mov	r0, r7
     b5c:	f004 f8bd 	bl	4cda <__utee_check_inout_annotation>
/home/ldx1/dev/tee-fusion-repo/build/optee_os_ep-prefix/src/optee_os_ep/lib/libutee/tee_api.c:493
     b60:	b11e      	cbz	r6, b6a <__GP11_TEE_InvokeTACommand+0x56>
/home/ldx1/dev/tee-fusion-repo/build/optee_os_ep-prefix/src/optee_os_ep/lib/libutee/tee_api.c:494
     b62:	2104      	movs	r1, #4
     b64:	4630      	mov	r0, r6
     b66:	f004 f8a0 	bl	4caa <__utee_check_out_annotation>
/home/ldx1/dev/tee-fusion-repo/build/optee_os_ep-prefix/src/optee_os_ep/lib/libutee/tee_api.c:497
     b6a:	4621      	mov	r1, r4
     b6c:	463a      	mov	r2, r7
     b6e:	4628      	mov	r0, r5
     b70:	f7ff fc4a 	bl	408 <copy_gp11_param>
/home/ldx1/dev/tee-fusion-repo/build/optee_os_ep-prefix/src/optee_os_ep/lib/libutee/tee_api.c:498
     b74:	4643      	mov	r3, r8
     b76:	aa05      	add	r2, sp, #20
     b78:	a904      	add	r1, sp, #16
     b7a:	4628      	mov	r0, r5
     b7c:	f7ff fdee 	bl	75c <map_tmp_param>
/home/ldx1/dev/tee-fusion-repo/build/optee_os_ep-prefix/src/optee_os_ep/lib/libutee/tee_api.c:499
     b80:	4604      	mov	r4, r0
     b82:	b9a8      	cbnz	r0, bb0 <__GP11_TEE_InvokeTACommand+0x9c>
/home/ldx1/dev/tee-fusion-repo/build/optee_os_ep-prefix/src/optee_os_ep/lib/libutee/tee_api.c:501
     b84:	ab03      	add	r3, sp, #12
     b86:	465a      	mov	r2, fp
     b88:	4651      	mov	r1, sl
     b8a:	9300      	str	r3, [sp, #0]
     b8c:	4648      	mov	r0, r9
     b8e:	462b      	mov	r3, r5
     b90:	f004 ec84 	blx	549c <_utee_invoke_ta_command>
/home/ldx1/dev/tee-fusion-repo/build/optee_os_ep-prefix/src/optee_os_ep/lib/libutee/tee_api.c:504
     b94:	462a      	mov	r2, r5
/home/ldx1/dev/tee-fusion-repo/build/optee_os_ep-prefix/src/optee_os_ep/lib/libutee/tee_api.c:501
     b96:	4604      	mov	r4, r0
/home/ldx1/dev/tee-fusion-repo/build/optee_os_ep-prefix/src/optee_os_ep/lib/libutee/tee_api.c:504
     b98:	4641      	mov	r1, r8
     b9a:	4638      	mov	r0, r7
     b9c:	f7ff fd07 	bl	5ae <update_out_gp11_param>
/home/ldx1/dev/tee-fusion-repo/build/optee_os_ep-prefix/src/optee_os_ep/lib/libutee/tee_api.c:505
     ba0:	9804      	ldr	r0, [sp, #16]
     ba2:	b128      	cbz	r0, bb0 <__GP11_TEE_InvokeTACommand+0x9c>
/home/ldx1/dev/tee-fusion-repo/build/optee_os_ep-prefix/src/optee_os_ep/lib/libutee/tee_api.c:506
     ba4:	9905      	ldr	r1, [sp, #20]
     ba6:	f004 f901 	bl	4dac <tee_unmap>
/home/ldx1/dev/tee-fusion-repo/build/optee_os_ep-prefix/src/optee_os_ep/lib/libutee/tee_api.c:508
     baa:	b108      	cbz	r0, bb0 <__GP11_TEE_InvokeTACommand+0x9c>
/home/ldx1/dev/tee-fusion-repo/build/optee_os_ep-prefix/src/optee_os_ep/lib/libutee/tee_api.c:509
     bac:	f004 f850 	bl	4c50 <TEE_Panic>
/home/ldx1/dev/tee-fusion-repo/build/optee_os_ep-prefix/src/optee_os_ep/lib/libutee/tee_api.c:514
     bb0:	9b03      	ldr	r3, [sp, #12]
/home/ldx1/dev/tee-fusion-repo/build/optee_os_ep-prefix/src/optee_os_ep/lib/libutee/tee_api.c:513
     bb2:	b106      	cbz	r6, bb6 <__GP11_TEE_InvokeTACommand+0xa2>
/home/ldx1/dev/tee-fusion-repo/build/optee_os_ep-prefix/src/optee_os_ep/lib/libutee/tee_api.c:514
     bb4:	6033      	str	r3, [r6, #0]
/home/ldx1/dev/tee-fusion-repo/build/optee_os_ep-prefix/src/optee_os_ep/lib/libutee/tee_api.c:516
     bb6:	2b04      	cmp	r3, #4
     bb8:	d009      	beq.n	bce <__GP11_TEE_InvokeTACommand+0xba>
/home/ldx1/dev/tee-fusion-repo/build/optee_os_ep-prefix/src/optee_os_ep/lib/libutee/tee_api.c:519
     bba:	b144      	cbz	r4, bce <__GP11_TEE_InvokeTACommand+0xba>
/home/ldx1/dev/tee-fusion-repo/build/optee_os_ep-prefix/src/optee_os_ep/lib/libutee/tee_api.c:519 (discriminator 1)
     bbc:	4b0c      	ldr	r3, [pc, #48]	@ (bf0 <__GP11_TEE_InvokeTACommand+0xdc>)
     bbe:	429c      	cmp	r4, r3
     bc0:	d005      	beq.n	bce <__GP11_TEE_InvokeTACommand+0xba>
/home/ldx1/dev/tee-fusion-repo/build/optee_os_ep-prefix/src/optee_os_ep/lib/libutee/tee_api.c:520
     bc2:	4b0c      	ldr	r3, [pc, #48]	@ (bf4 <__GP11_TEE_InvokeTACommand+0xe0>)
     bc4:	429c      	cmp	r4, r3
     bc6:	d002      	beq.n	bce <__GP11_TEE_InvokeTACommand+0xba>
/home/ldx1/dev/tee-fusion-repo/build/optee_os_ep-prefix/src/optee_os_ep/lib/libutee/tee_api.c:522
     bc8:	4620      	mov	r0, r4
     bca:	f004 f841 	bl	4c50 <TEE_Panic>
/home/ldx1/dev/tee-fusion-repo/build/optee_os_ep-prefix/src/optee_os_ep/lib/libutee/tee_api.c:481
     bce:	4a0c      	ldr	r2, [pc, #48]	@ (c00 <__GP11_TEE_InvokeTACommand+0xec>)
/home/ldx1/dev/tee-fusion-repo/build/optee_os_ep-prefix/src/optee_os_ep/lib/libutee/tee_api.c:525
     bd0:	4b0a      	ldr	r3, [pc, #40]	@ (bfc <__GP11_TEE_InvokeTACommand+0xe8>)
/home/ldx1/dev/tee-fusion-repo/build/optee_os_ep-prefix/src/optee_os_ep/lib/libutee/tee_api.c:481
     bd2:	447a      	add	r2, pc
/home/ldx1/dev/tee-fusion-repo/build/optee_os_ep-prefix/src/optee_os_ep/lib/libutee/tee_api.c:525
     bd4:	58d3      	ldr	r3, [r2, r3]
     bd6:	681a      	ldr	r2, [r3, #0]
     bd8:	9b1d      	ldr	r3, [sp, #116]	@ 0x74
     bda:	405a      	eors	r2, r3
     bdc:	f04f 0300 	mov.w	r3, #0
     be0:	d001      	beq.n	be6 <__GP11_TEE_InvokeTACommand+0xd2>
     be2:	f7ff fb75 	bl	2d0 <__stack_chk_fail>
     be6:	4620      	mov	r0, r4
     be8:	b01f      	add	sp, #124	@ 0x7c
     bea:	e8bd 8ff0 	ldmia.w	sp!, {r4, r5, r6, r7, r8, r9, sl, fp, pc}
     bee:	bf00      	nop
     bf0:	ffff000c 	.word	0xffff000c
     bf4:	ffff3024 	.word	0xffff3024
     bf8:	0000e564 	.word	0x0000e564
     bfc:	0000000c 	.word	0x0000000c
     c00:	0000e4b2 	.word	0x0000e4b2

00000c04 <__GP11_TEE_CheckMemoryAccessRights>:
__GP11_TEE_CheckMemoryAccessRights():
/home/ldx1/dev/tee-fusion-repo/build/optee_os_ep-prefix/src/optee_os_ep/lib/libutee/tee_api.c:597
     c04:	f7ff bd86 	b.w	714 <TEE_CheckMemoryAccessRights>

00000c08 <TEE_SetInstanceData>:
TEE_SetInstanceData():
/home/ldx1/dev/tee-fusion-repo/build/optee_os_ep-prefix/src/optee_os_ep/lib/libutee/tee_api.c:602
     c08:	4b01      	ldr	r3, [pc, #4]	@ (c10 <TEE_SetInstanceData+0x8>)
     c0a:	447b      	add	r3, pc
     c0c:	6018      	str	r0, [r3, #0]
/home/ldx1/dev/tee-fusion-repo/build/optee_os_ep-prefix/src/optee_os_ep/lib/libutee/tee_api.c:603
     c0e:	4770      	bx	lr
     c10:	000167b6 	.word	0x000167b6

00000c14 <TEE_GetInstanceData>:
TEE_GetInstanceData():
/home/ldx1/dev/tee-fusion-repo/build/optee_os_ep-prefix/src/optee_os_ep/lib/libutee/tee_api.c:608
     c14:	4b01      	ldr	r3, [pc, #4]	@ (c1c <TEE_GetInstanceData+0x8>)
     c16:	447b      	add	r3, pc
     c18:	6818      	ldr	r0, [r3, #0]
     c1a:	4770      	bx	lr
     c1c:	000167aa 	.word	0x000167aa

00000c20 <TEE_MemMove>:
TEE_MemMove():
/home/ldx1/dev/tee-fusion-repo/build/optee_os_ep-prefix/src/optee_os_ep/lib/libutee/tee_api.c:612
     c20:	f00b bf20 	b.w	ca64 <memmove>

00000c24 <__GP11_TEE_MemMove>:
__GP11_TEE_MemMove():
/home/ldx1/dev/tee-fusion-repo/build/optee_os_ep-prefix/src/optee_os_ep/lib/libutee/tee_api.c:617
     c24:	f7ff bffc 	b.w	c20 <TEE_MemMove>

00000c28 <TEE_MemCompare>:
TEE_MemCompare():
/home/ldx1/dev/tee-fusion-repo/build/optee_os_ep-prefix/src/optee_os_ep/lib/libutee/tee_api.c:622
     c28:	f00b bf63 	b.w	caf2 <consttime_memcmp>

00000c2c <__GP11_TEE_MemCompare>:
__GP11_TEE_MemCompare():
/home/ldx1/dev/tee-fusion-repo/build/optee_os_ep-prefix/src/optee_os_ep/lib/libutee/tee_api.c:628
     c2c:	f7ff bffc 	b.w	c28 <TEE_MemCompare>

00000c30 <TEE_MemFill>:
TEE_MemFill():
/home/ldx1/dev/tee-fusion-repo/build/optee_os_ep-prefix/src/optee_os_ep/lib/libutee/tee_api.c:633
     c30:	f00b bd01 	b.w	c636 <memset>

00000c34 <__GP11_TEE_MemFill>:
__GP11_TEE_MemFill():
/home/ldx1/dev/tee-fusion-repo/build/optee_os_ep-prefix/src/optee_os_ep/lib/libutee/tee_api.c:638
     c34:	f7ff bffc 	b.w	c30 <TEE_MemFill>

00000c38 <TEE_GetSystemTime>:
TEE_GetSystemTime():
/home/ldx1/dev/tee-fusion-repo/build/optee_os_ep-prefix/src/optee_os_ep/lib/libutee/tee_api.c:644
     c38:	4601      	mov	r1, r0
     c3a:	b508      	push	{r3, lr}
/home/ldx1/dev/tee-fusion-repo/build/optee_os_ep-prefix/src/optee_os_ep/lib/libutee/tee_api.c:645
     c3c:	2000      	movs	r0, #0
     c3e:	f004 ec6c 	blx	5518 <_utee_get_time>
/home/ldx1/dev/tee-fusion-repo/build/optee_os_ep-prefix/src/optee_os_ep/lib/libutee/tee_api.c:647
     c42:	b118      	cbz	r0, c4c <TEE_GetSystemTime+0x14>
/home/ldx1/dev/tee-fusion-repo/build/optee_os_ep-prefix/src/optee_os_ep/lib/libutee/tee_api.c:649
     c44:	e8bd 4008 	ldmia.w	sp!, {r3, lr}
/home/ldx1/dev/tee-fusion-repo/build/optee_os_ep-prefix/src/optee_os_ep/lib/libutee/tee_api.c:648
     c48:	f004 b802 	b.w	4c50 <TEE_Panic>
/home/ldx1/dev/tee-fusion-repo/build/optee_os_ep-prefix/src/optee_os_ep/lib/libutee/tee_api.c:649
     c4c:	bd08      	pop	{r3, pc}

00000c4e <TEE_Wait>:
TEE_Wait():
/home/ldx1/dev/tee-fusion-repo/build/optee_os_ep-prefix/src/optee_os_ep/lib/libutee/tee_api.c:652
     c4e:	b510      	push	{r4, lr}
/home/ldx1/dev/tee-fusion-repo/build/optee_os_ep-prefix/src/optee_os_ep/lib/libutee/tee_api.c:653
     c50:	f004 ec58 	blx	5504 <_utee_wait>
/home/ldx1/dev/tee-fusion-repo/build/optee_os_ep-prefix/src/optee_os_ep/lib/libutee/tee_api.c:655
     c54:	4604      	mov	r4, r0
     c56:	b120      	cbz	r0, c62 <TEE_Wait+0x14>
/home/ldx1/dev/tee-fusion-repo/build/optee_os_ep-prefix/src/optee_os_ep/lib/libutee/tee_api.c:655 (discriminator 1)
     c58:	4b03      	ldr	r3, [pc, #12]	@ (c68 <TEE_Wait+0x1a>)
     c5a:	4298      	cmp	r0, r3
     c5c:	d001      	beq.n	c62 <TEE_Wait+0x14>
/home/ldx1/dev/tee-fusion-repo/build/optee_os_ep-prefix/src/optee_os_ep/lib/libutee/tee_api.c:656
     c5e:	f003 fff7 	bl	4c50 <TEE_Panic>
/home/ldx1/dev/tee-fusion-repo/build/optee_os_ep-prefix/src/optee_os_ep/lib/libutee/tee_api.c:659
     c62:	4620      	mov	r0, r4
     c64:	bd10      	pop	{r4, pc}
     c66:	bf00      	nop
     c68:	ffff0002 	.word	0xffff0002

00000c6c <TEE_GetTAPersistentTime>:
TEE_GetTAPersistentTime():
/home/ldx1/dev/tee-fusion-repo/build/optee_os_ep-prefix/src/optee_os_ep/lib/libutee/tee_api.c:662
     c6c:	b538      	push	{r3, r4, r5, lr}
/home/ldx1/dev/tee-fusion-repo/build/optee_os_ep-prefix/src/optee_os_ep/lib/libutee/tee_api.c:665
     c6e:	4601      	mov	r1, r0
/home/ldx1/dev/tee-fusion-repo/build/optee_os_ep-prefix/src/optee_os_ep/lib/libutee/tee_api.c:662
     c70:	4605      	mov	r5, r0
/home/ldx1/dev/tee-fusion-repo/build/optee_os_ep-prefix/src/optee_os_ep/lib/libutee/tee_api.c:665
     c72:	2001      	movs	r0, #1
     c74:	f004 ec50 	blx	5518 <_utee_get_time>
     c78:	4604      	mov	r4, r0
/home/ldx1/dev/tee-fusion-repo/build/optee_os_ep-prefix/src/optee_os_ep/lib/libutee/tee_api.c:667
     c7a:	b170      	cbz	r0, c9a <TEE_GetTAPersistentTime+0x2e>
/home/ldx1/dev/tee-fusion-repo/build/optee_os_ep-prefix/src/optee_os_ep/lib/libutee/tee_api.c:667 (discriminator 1)
     c7c:	4b08      	ldr	r3, [pc, #32]	@ (ca0 <TEE_GetTAPersistentTime+0x34>)
     c7e:	4298      	cmp	r0, r3
     c80:	d00b      	beq.n	c9a <TEE_GetTAPersistentTime+0x2e>
/home/ldx1/dev/tee-fusion-repo/build/optee_os_ep-prefix/src/optee_os_ep/lib/libutee/tee_api.c:668
     c82:	2300      	movs	r3, #0
     c84:	602b      	str	r3, [r5, #0]
/home/ldx1/dev/tee-fusion-repo/build/optee_os_ep-prefix/src/optee_os_ep/lib/libutee/tee_api.c:669
     c86:	606b      	str	r3, [r5, #4]
/home/ldx1/dev/tee-fusion-repo/build/optee_os_ep-prefix/src/optee_os_ep/lib/libutee/tee_api.c:672 (discriminator 1)
     c88:	f500 4330 	add.w	r3, r0, #45056	@ 0xb000
     c8c:	2b01      	cmp	r3, #1
     c8e:	d904      	bls.n	c9a <TEE_GetTAPersistentTime+0x2e>
/home/ldx1/dev/tee-fusion-repo/build/optee_os_ep-prefix/src/optee_os_ep/lib/libutee/tee_api.c:675
     c90:	4b04      	ldr	r3, [pc, #16]	@ (ca4 <TEE_GetTAPersistentTime+0x38>)
     c92:	4298      	cmp	r0, r3
     c94:	d001      	beq.n	c9a <TEE_GetTAPersistentTime+0x2e>
/home/ldx1/dev/tee-fusion-repo/build/optee_os_ep-prefix/src/optee_os_ep/lib/libutee/tee_api.c:677
     c96:	f003 ffdb 	bl	4c50 <TEE_Panic>
/home/ldx1/dev/tee-fusion-repo/build/optee_os_ep-prefix/src/optee_os_ep/lib/libutee/tee_api.c:680
     c9a:	4620      	mov	r0, r4
     c9c:	bd38      	pop	{r3, r4, r5, pc}
     c9e:	bf00      	nop
     ca0:	ffff300f 	.word	0xffff300f
     ca4:	ffff000c 	.word	0xffff000c

00000ca8 <TEE_SetTAPersistentTime>:
TEE_SetTAPersistentTime():
/home/ldx1/dev/tee-fusion-repo/build/optee_os_ep-prefix/src/optee_os_ep/lib/libutee/tee_api.c:683
     ca8:	b510      	push	{r4, lr}
/home/ldx1/dev/tee-fusion-repo/build/optee_os_ep-prefix/src/optee_os_ep/lib/libutee/tee_api.c:686
     caa:	f004 ec40 	blx	552c <_utee_set_ta_time>
/home/ldx1/dev/tee-fusion-repo/build/optee_os_ep-prefix/src/optee_os_ep/lib/libutee/tee_api.c:688
     cae:	4604      	mov	r4, r0
     cb0:	b138      	cbz	r0, cc2 <TEE_SetTAPersistentTime+0x1a>
/home/ldx1/dev/tee-fusion-repo/build/optee_os_ep-prefix/src/optee_os_ep/lib/libutee/tee_api.c:688 (discriminator 1)
     cb2:	4b05      	ldr	r3, [pc, #20]	@ (cc8 <TEE_SetTAPersistentTime+0x20>)
     cb4:	4298      	cmp	r0, r3
     cb6:	d004      	beq.n	cc2 <TEE_SetTAPersistentTime+0x1a>
/home/ldx1/dev/tee-fusion-repo/build/optee_os_ep-prefix/src/optee_os_ep/lib/libutee/tee_api.c:689
     cb8:	4b04      	ldr	r3, [pc, #16]	@ (ccc <TEE_SetTAPersistentTime+0x24>)
     cba:	4298      	cmp	r0, r3
     cbc:	d001      	beq.n	cc2 <TEE_SetTAPersistentTime+0x1a>
/home/ldx1/dev/tee-fusion-repo/build/optee_os_ep-prefix/src/optee_os_ep/lib/libutee/tee_api.c:691
     cbe:	f003 ffc7 	bl	4c50 <TEE_Panic>
/home/ldx1/dev/tee-fusion-repo/build/optee_os_ep-prefix/src/optee_os_ep/lib/libutee/tee_api.c:694
     cc2:	4620      	mov	r0, r4
     cc4:	bd10      	pop	{r4, pc}
     cc6:	bf00      	nop
     cc8:	ffff000c 	.word	0xffff000c
     ccc:	ffff3041 	.word	0xffff3041

00000cd0 <TEE_GetREETime>:
TEE_GetREETime():
/home/ldx1/dev/tee-fusion-repo/build/optee_os_ep-prefix/src/optee_os_ep/lib/libutee/tee_api.c:697
     cd0:	4601      	mov	r1, r0
     cd2:	b508      	push	{r3, lr}
/home/ldx1/dev/tee-fusion-repo/build/optee_os_ep-prefix/src/optee_os_ep/lib/libutee/tee_api.c:698
     cd4:	2002      	movs	r0, #2
     cd6:	f004 ec20 	blx	5518 <_utee_get_time>
/home/ldx1/dev/tee-fusion-repo/build/optee_os_ep-prefix/src/optee_os_ep/lib/libutee/tee_api.c:700
     cda:	b118      	cbz	r0, ce4 <TEE_GetREETime+0x14>
/home/ldx1/dev/tee-fusion-repo/build/optee_os_ep-prefix/src/optee_os_ep/lib/libutee/tee_api.c:702
     cdc:	e8bd 4008 	ldmia.w	sp!, {r3, lr}
/home/ldx1/dev/tee-fusion-repo/build/optee_os_ep-prefix/src/optee_os_ep/lib/libutee/tee_api.c:701
     ce0:	f003 bfb6 	b.w	4c50 <TEE_Panic>
/home/ldx1/dev/tee-fusion-repo/build/optee_os_ep-prefix/src/optee_os_ep/lib/libutee/tee_api.c:702
     ce4:	bd08      	pop	{r3, pc}

00000ce6 <TEE_Malloc>:
TEE_Malloc():
/home/ldx1/dev/tee-fusion-repo/build/optee_os_ep-prefix/src/optee_os_ep/lib/libutee/tee_api.c:705
     ce6:	4b22      	ldr	r3, [pc, #136]	@ (d70 <TEE_Malloc+0x8a>)
/home/ldx1/dev/tee-fusion-repo/build/optee_os_ep-prefix/src/optee_os_ep/lib/libutee/tee_api.c:706
     ce8:	2903      	cmp	r1, #3
/home/ldx1/dev/tee-fusion-repo/build/optee_os_ep-prefix/src/optee_os_ep/lib/libutee/tee_api.c:705
     cea:	b507      	push	{r0, r1, r2, lr}
     cec:	4602      	mov	r2, r0
     cee:	447b      	add	r3, pc
/home/ldx1/dev/tee-fusion-repo/build/optee_os_ep-prefix/src/optee_os_ep/lib/libutee/tee_api.c:706
     cf0:	d806      	bhi.n	d00 <TEE_Malloc+0x1a>
     cf2:	3901      	subs	r1, #1
     cf4:	2902      	cmp	r1, #2
     cf6:	d80a      	bhi.n	d0e <TEE_Malloc+0x28>
     cf8:	e8df f001 	tbb	[pc, r1]
     cfc:	1511      	.short	0x1511
     cfe:	23          	.byte	0x23
     cff:	00          	.byte	0x00
     d00:	f1b1 4f00 	cmp.w	r1, #2147483648	@ 0x80000000
     d04:	d02a      	beq.n	d5c <TEE_Malloc+0x76>
/home/ldx1/dev/tee-fusion-repo/build/optee_os_ep-prefix/src/optee_os_ep/lib/libutee/tee_api.c:705
     d06:	2000      	movs	r0, #0
/home/ldx1/dev/tee-fusion-repo/build/optee_os_ep-prefix/src/optee_os_ep/lib/libutee/tee_api.c:742
     d08:	b003      	add	sp, #12
     d0a:	f85d fb04 	ldr.w	pc, [sp], #4
/home/ldx1/dev/tee-fusion-repo/build/optee_os_ep-prefix/src/optee_os_ep/lib/libutee/tee_api.c:708
     d0e:	b36a      	cbz	r2, d6c <TEE_Malloc+0x86>
/home/ldx1/dev/tee-fusion-repo/build/optee_os_ep-prefix/src/optee_os_ep/lib/libutee/tee_api.c:710
     d10:	4611      	mov	r1, r2
     d12:	2001      	movs	r0, #1
/home/ldx1/dev/tee-fusion-repo/build/optee_os_ep-prefix/src/optee_os_ep/lib/libutee/tee_api.c:742
     d14:	b003      	add	sp, #12
     d16:	f85d eb04 	ldr.w	lr, [sp], #4
/home/ldx1/dev/tee-fusion-repo/build/optee_os_ep-prefix/src/optee_os_ep/lib/libutee/tee_api.c:710
     d1a:	f00a bd85 	b.w	b828 <calloc>
/home/ldx1/dev/tee-fusion-repo/build/optee_os_ep-prefix/src/optee_os_ep/lib/libutee/tee_api.c:713
     d1e:	2000      	movs	r0, #0
     d20:	f003 ff96 	bl	4c50 <TEE_Panic>
/home/ldx1/dev/tee-fusion-repo/build/optee_os_ep-prefix/src/optee_os_ep/lib/libutee/tee_api.c:714
     d24:	e7ef      	b.n	d06 <TEE_Malloc+0x20>
/home/ldx1/dev/tee-fusion-repo/build/optee_os_ep-prefix/src/optee_os_ep/lib/libutee/tee_api.c:717
     d26:	b1fa      	cbz	r2, d68 <TEE_Malloc+0x82>
/home/ldx1/dev/tee-fusion-repo/build/optee_os_ep-prefix/src/optee_os_ep/lib/libutee/tee_api.c:719
     d28:	4912      	ldr	r1, [pc, #72]	@ (d74 <TEE_Malloc+0x8e>)
     d2a:	585b      	ldr	r3, [r3, r1]
     d2c:	681b      	ldr	r3, [r3, #0]
     d2e:	2b00      	cmp	r3, #0
     d30:	d0e9      	beq.n	d06 <TEE_Malloc+0x20>
/home/ldx1/dev/tee-fusion-repo/build/optee_os_ep-prefix/src/optee_os_ep/lib/libutee/tee_api.c:721
     d32:	2100      	movs	r1, #0
     d34:	9300      	str	r3, [sp, #0]
     d36:	4608      	mov	r0, r1
     d38:	4613      	mov	r3, r2
     d3a:	2201      	movs	r2, #1
     d3c:	f00a fcee 	bl	b71c <raw_calloc>
     d40:	e7e2      	b.n	d08 <TEE_Malloc+0x22>
/home/ldx1/dev/tee-fusion-repo/build/optee_os_ep-prefix/src/optee_os_ep/lib/libutee/tee_api.c:724
     d42:	b18a      	cbz	r2, d68 <TEE_Malloc+0x82>
/home/ldx1/dev/tee-fusion-repo/build/optee_os_ep-prefix/src/optee_os_ep/lib/libutee/tee_api.c:726
     d44:	490b      	ldr	r1, [pc, #44]	@ (d74 <TEE_Malloc+0x8e>)
     d46:	585b      	ldr	r3, [r3, r1]
     d48:	681b      	ldr	r3, [r3, #0]
     d4a:	2b00      	cmp	r3, #0
     d4c:	d0db      	beq.n	d06 <TEE_Malloc+0x20>
/home/ldx1/dev/tee-fusion-repo/build/optee_os_ep-prefix/src/optee_os_ep/lib/libutee/tee_api.c:728
     d4e:	2100      	movs	r1, #0
     d50:	4608      	mov	r0, r1
/home/ldx1/dev/tee-fusion-repo/build/optee_os_ep-prefix/src/optee_os_ep/lib/libutee/tee_api.c:742
     d52:	b003      	add	sp, #12
     d54:	f85d eb04 	ldr.w	lr, [sp], #4
/home/ldx1/dev/tee-fusion-repo/build/optee_os_ep-prefix/src/optee_os_ep/lib/libutee/tee_api.c:728
     d58:	f00a bcd3 	b.w	b702 <raw_malloc>
/home/ldx1/dev/tee-fusion-repo/build/optee_os_ep-prefix/src/optee_os_ep/lib/libutee/tee_api.c:731
     d5c:	b130      	cbz	r0, d6c <TEE_Malloc+0x86>
/home/ldx1/dev/tee-fusion-repo/build/optee_os_ep-prefix/src/optee_os_ep/lib/libutee/tee_api.c:742
     d5e:	b003      	add	sp, #12
     d60:	f85d eb04 	ldr.w	lr, [sp], #4
/home/ldx1/dev/tee-fusion-repo/build/optee_os_ep-prefix/src/optee_os_ep/lib/libutee/tee_api.c:733
     d64:	f00a bd55 	b.w	b812 <malloc>
/home/ldx1/dev/tee-fusion-repo/build/optee_os_ep-prefix/src/optee_os_ep/lib/libutee/tee_api.c:718
     d68:	2002      	movs	r0, #2
     d6a:	e7cd      	b.n	d08 <TEE_Malloc+0x22>
/home/ldx1/dev/tee-fusion-repo/build/optee_os_ep-prefix/src/optee_os_ep/lib/libutee/tee_api.c:709
     d6c:	2001      	movs	r0, #1
     d6e:	e7cb      	b.n	d08 <TEE_Malloc+0x22>
     d70:	0000e396 	.word	0x0000e396
     d74:	00000040 	.word	0x00000040

00000d78 <__GP11_TEE_Malloc>:
__GP11_TEE_Malloc():
/home/ldx1/dev/tee-fusion-repo/build/optee_os_ep-prefix/src/optee_os_ep/lib/libutee/tee_api.c:746
     d78:	f7ff bfb5 	b.w	ce6 <TEE_Malloc>

00000d7c <TEE_Free>:
TEE_Free():
/home/ldx1/dev/tee-fusion-repo/build/optee_os_ep-prefix/src/optee_os_ep/lib/libutee/tee_api.c:790
     d7c:	b538      	push	{r3, r4, r5, lr}
/home/ldx1/dev/tee-fusion-repo/build/optee_os_ep-prefix/src/optee_os_ep/lib/libutee/tee_api.c:791
     d7e:	1e43      	subs	r3, r0, #1
/home/ldx1/dev/tee-fusion-repo/build/optee_os_ep-prefix/src/optee_os_ep/lib/libutee/tee_api.c:790
     d80:	4d0b      	ldr	r5, [pc, #44]	@ (db0 <TEE_Free+0x34>)
     d82:	4604      	mov	r4, r0
/home/ldx1/dev/tee-fusion-repo/build/optee_os_ep-prefix/src/optee_os_ep/lib/libutee/tee_api.c:791
     d84:	2b01      	cmp	r3, #1
/home/ldx1/dev/tee-fusion-repo/build/optee_os_ep-prefix/src/optee_os_ep/lib/libutee/tee_api.c:790
     d86:	447d      	add	r5, pc
/home/ldx1/dev/tee-fusion-repo/build/optee_os_ep-prefix/src/optee_os_ep/lib/libutee/tee_api.c:791
     d88:	d911      	bls.n	dae <TEE_Free+0x32>
addr_is_in_no_share_heap():
/home/ldx1/dev/tee-fusion-repo/build/optee_os_ep-prefix/src/optee_os_ep/lib/libutee/tee_api.c:751
     d8a:	2101      	movs	r1, #1
     d8c:	f7ff fb9c 	bl	4c8 <buf_overlaps_no_share_heap>
TEE_Free():
/home/ldx1/dev/tee-fusion-repo/build/optee_os_ep-prefix/src/optee_os_ep/lib/libutee/tee_api.c:793 (discriminator 1)
     d90:	b140      	cbz	r0, da4 <TEE_Free+0x28>
/home/ldx1/dev/tee-fusion-repo/build/optee_os_ep-prefix/src/optee_os_ep/lib/libutee/tee_api.c:794
     d92:	4b08      	ldr	r3, [pc, #32]	@ (db4 <TEE_Free+0x38>)
     d94:	4620      	mov	r0, r4
     d96:	2200      	movs	r2, #0
     d98:	58eb      	ldr	r3, [r5, r3]
     d9a:	6819      	ldr	r1, [r3, #0]
/home/ldx1/dev/tee-fusion-repo/build/optee_os_ep-prefix/src/optee_os_ep/lib/libutee/tee_api.c:798
     d9c:	e8bd 4038 	ldmia.w	sp!, {r3, r4, r5, lr}
/home/ldx1/dev/tee-fusion-repo/build/optee_os_ep-prefix/src/optee_os_ep/lib/libutee/tee_api.c:794
     da0:	f00a bcb8 	b.w	b714 <raw_free>
/home/ldx1/dev/tee-fusion-repo/build/optee_os_ep-prefix/src/optee_os_ep/lib/libutee/tee_api.c:796
     da4:	4620      	mov	r0, r4
/home/ldx1/dev/tee-fusion-repo/build/optee_os_ep-prefix/src/optee_os_ep/lib/libutee/tee_api.c:798
     da6:	e8bd 4038 	ldmia.w	sp!, {r3, r4, r5, lr}
/home/ldx1/dev/tee-fusion-repo/build/optee_os_ep-prefix/src/optee_os_ep/lib/libutee/tee_api.c:796
     daa:	f00a bd76 	b.w	b89a <free>
/home/ldx1/dev/tee-fusion-repo/build/optee_os_ep-prefix/src/optee_os_ep/lib/libutee/tee_api.c:798
     dae:	bd38      	pop	{r3, r4, r5, pc}
     db0:	0000e2fe 	.word	0x0000e2fe
     db4:	00000040 	.word	0x00000040

00000db8 <TEE_Realloc>:
TEE_Realloc():
/home/ldx1/dev/tee-fusion-repo/build/optee_os_ep-prefix/src/optee_os_ep/lib/libutee/tee_api.c:755
     db8:	b573      	push	{r0, r1, r4, r5, r6, lr}
     dba:	4605      	mov	r5, r0
     dbc:	4c1e      	ldr	r4, [pc, #120]	@ (e38 <TEE_Realloc+0x80>)
/home/ldx1/dev/tee-fusion-repo/build/optee_os_ep-prefix/src/optee_os_ep/lib/libutee/tee_api.c:756
     dbe:	460e      	mov	r6, r1
/home/ldx1/dev/tee-fusion-repo/build/optee_os_ep-prefix/src/optee_os_ep/lib/libutee/tee_api.c:755
     dc0:	447c      	add	r4, pc
/home/ldx1/dev/tee-fusion-repo/build/optee_os_ep-prefix/src/optee_os_ep/lib/libutee/tee_api.c:756
     dc2:	b961      	cbnz	r1, dde <TEE_Realloc+0x26>
addr_is_in_no_share_heap():
/home/ldx1/dev/tee-fusion-repo/build/optee_os_ep-prefix/src/optee_os_ep/lib/libutee/tee_api.c:751
     dc4:	2101      	movs	r1, #1
     dc6:	f7ff fb7f 	bl	4c8 <buf_overlaps_no_share_heap>
TEE_Realloc():
/home/ldx1/dev/tee-fusion-repo/build/optee_os_ep-prefix/src/optee_os_ep/lib/libutee/tee_api.c:760
     dca:	2800      	cmp	r0, #0
/home/ldx1/dev/tee-fusion-repo/build/optee_os_ep-prefix/src/optee_os_ep/lib/libutee/tee_api.c:764
     dcc:	4628      	mov	r0, r5
/home/ldx1/dev/tee-fusion-repo/build/optee_os_ep-prefix/src/optee_os_ep/lib/libutee/tee_api.c:760
     dce:	bf0c      	ite	eq
     dd0:	2401      	moveq	r4, #1
     dd2:	2402      	movne	r4, #2
/home/ldx1/dev/tee-fusion-repo/build/optee_os_ep-prefix/src/optee_os_ep/lib/libutee/tee_api.c:764
     dd4:	f7ff ffd2 	bl	d7c <TEE_Free>
/home/ldx1/dev/tee-fusion-repo/build/optee_os_ep-prefix/src/optee_os_ep/lib/libutee/tee_api.c:782
     dd8:	4620      	mov	r0, r4
     dda:	b002      	add	sp, #8
     ddc:	bd70      	pop	{r4, r5, r6, pc}
/home/ldx1/dev/tee-fusion-repo/build/optee_os_ep-prefix/src/optee_os_ep/lib/libutee/tee_api.c:769
     dde:	2801      	cmp	r0, #1
     de0:	d104      	bne.n	dec <TEE_Realloc+0x34>
/home/ldx1/dev/tee-fusion-repo/build/optee_os_ep-prefix/src/optee_os_ep/lib/libutee/tee_api.c:782
     de2:	b002      	add	sp, #8
     de4:	e8bd 4070 	ldmia.w	sp!, {r4, r5, r6, lr}
/home/ldx1/dev/tee-fusion-repo/build/optee_os_ep-prefix/src/optee_os_ep/lib/libutee/tee_api.c:770
     de8:	f00a bd1e 	b.w	b828 <calloc>
/home/ldx1/dev/tee-fusion-repo/build/optee_os_ep-prefix/src/optee_os_ep/lib/libutee/tee_api.c:771
     dec:	2802      	cmp	r0, #2
     dee:	d10d      	bne.n	e0c <TEE_Realloc+0x54>
/home/ldx1/dev/tee-fusion-repo/build/optee_os_ep-prefix/src/optee_os_ep/lib/libutee/tee_api.c:772
     df0:	4b12      	ldr	r3, [pc, #72]	@ (e3c <TEE_Realloc+0x84>)
     df2:	58e3      	ldr	r3, [r4, r3]
     df4:	681c      	ldr	r4, [r3, #0]
     df6:	2c00      	cmp	r4, #0
     df8:	d0ee      	beq.n	dd8 <TEE_Realloc+0x20>
/home/ldx1/dev/tee-fusion-repo/build/optee_os_ep-prefix/src/optee_os_ep/lib/libutee/tee_api.c:774
     dfa:	460b      	mov	r3, r1
     dfc:	2100      	movs	r1, #0
     dfe:	2201      	movs	r2, #1
     e00:	4608      	mov	r0, r1
     e02:	9400      	str	r4, [sp, #0]
     e04:	f00a fc8a 	bl	b71c <raw_calloc>
/home/ldx1/dev/tee-fusion-repo/build/optee_os_ep-prefix/src/optee_os_ep/lib/libutee/tee_api.c:778
     e08:	4604      	mov	r4, r0
     e0a:	e7e5      	b.n	dd8 <TEE_Realloc+0x20>
addr_is_in_no_share_heap():
/home/ldx1/dev/tee-fusion-repo/build/optee_os_ep-prefix/src/optee_os_ep/lib/libutee/tee_api.c:751
     e0c:	2101      	movs	r1, #1
     e0e:	f7ff fb5b 	bl	4c8 <buf_overlaps_no_share_heap>
TEE_Realloc():
/home/ldx1/dev/tee-fusion-repo/build/optee_os_ep-prefix/src/optee_os_ep/lib/libutee/tee_api.c:777 (discriminator 1)
     e12:	b150      	cbz	r0, e2a <TEE_Realloc+0x72>
/home/ldx1/dev/tee-fusion-repo/build/optee_os_ep-prefix/src/optee_os_ep/lib/libutee/tee_api.c:778
     e14:	4b09      	ldr	r3, [pc, #36]	@ (e3c <TEE_Realloc+0x84>)
     e16:	2200      	movs	r2, #0
     e18:	4611      	mov	r1, r2
     e1a:	4628      	mov	r0, r5
     e1c:	58e3      	ldr	r3, [r4, r3]
     e1e:	681b      	ldr	r3, [r3, #0]
     e20:	9300      	str	r3, [sp, #0]
     e22:	4633      	mov	r3, r6
     e24:	f00a fca2 	bl	b76c <raw_realloc>
     e28:	e7ee      	b.n	e08 <TEE_Realloc+0x50>
/home/ldx1/dev/tee-fusion-repo/build/optee_os_ep-prefix/src/optee_os_ep/lib/libutee/tee_api.c:781
     e2a:	4631      	mov	r1, r6
     e2c:	4628      	mov	r0, r5
/home/ldx1/dev/tee-fusion-repo/build/optee_os_ep-prefix/src/optee_os_ep/lib/libutee/tee_api.c:782
     e2e:	b002      	add	sp, #8
     e30:	e8bd 4070 	ldmia.w	sp!, {r4, r5, r6, lr}
/home/ldx1/dev/tee-fusion-repo/build/optee_os_ep-prefix/src/optee_os_ep/lib/libutee/tee_api.c:781
     e34:	f00a bd08 	b.w	b848 <realloc>
     e38:	0000e2c4 	.word	0x0000e2c4
     e3c:	00000040 	.word	0x00000040

00000e40 <__GP11_TEE_Realloc>:
__GP11_TEE_Realloc():
/home/ldx1/dev/tee-fusion-repo/build/optee_os_ep-prefix/src/optee_os_ep/lib/libutee/tee_api.c:786
     e40:	f7ff bfba 	b.w	db8 <TEE_Realloc>

00000e44 <TEE_CacheClean>:
TEE_CacheClean():
/home/ldx1/dev/tee-fusion-repo/build/optee_os_ep-prefix/src/optee_os_ep/lib/libutee/tee_api.c:803
     e44:	2200      	movs	r2, #0
     e46:	f00b be87 	b.w	cb58 <___utee_cache_operation_from_thumb>

00000e4a <TEE_CacheFlush>:
TEE_CacheFlush():
/home/ldx1/dev/tee-fusion-repo/build/optee_os_ep-prefix/src/optee_os_ep/lib/libutee/tee_api.c:807
     e4a:	2201      	movs	r2, #1
     e4c:	f00b be84 	b.w	cb58 <___utee_cache_operation_from_thumb>

00000e50 <TEE_CacheInvalidate>:
TEE_CacheInvalidate():
/home/ldx1/dev/tee-fusion-repo/build/optee_os_ep-prefix/src/optee_os_ep/lib/libutee/tee_api.c:812
     e50:	2202      	movs	r2, #2
     e52:	f00b be81 	b.w	cb58 <___utee_cache_operation_from_thumb>
     e56:	bf00      	nop

00000e58 <__utee_from_attr>:
__utee_from_attr():
/home/ldx1/dev/tee-fusion-repo/build/optee_os_ep-prefix/src/optee_os_ep/lib/libutee/tee_api_objects.c:19
     e58:	2318      	movs	r3, #24
/home/ldx1/dev/tee-fusion-repo/build/optee_os_ep-prefix/src/optee_os_ep/lib/libutee/tee_api_objects.c:16
     e5a:	b530      	push	{r4, r5, lr}
     e5c:	fb03 0202 	mla	r2, r3, r2, r0
/home/ldx1/dev/tee-fusion-repo/build/optee_os_ep-prefix/src/optee_os_ep/lib/libutee/tee_api_objects.c:23
     e60:	2300      	movs	r3, #0
/home/ldx1/dev/tee-fusion-repo/build/optee_os_ep-prefix/src/optee_os_ep/lib/libutee/tee_api_objects.c:19 (discriminator 1)
     e62:	4290      	cmp	r0, r2
     e64:	d100      	bne.n	e68 <__utee_from_attr+0x10>
/home/ldx1/dev/tee-fusion-repo/build/optee_os_ep-prefix/src/optee_os_ep/lib/libutee/tee_api_objects.c:29
     e66:	bd30      	pop	{r4, r5, pc}
/home/ldx1/dev/tee-fusion-repo/build/optee_os_ep-prefix/src/optee_os_ep/lib/libutee/tee_api_objects.c:20
     e68:	680c      	ldr	r4, [r1, #0]
     e6a:	310c      	adds	r1, #12
     e6c:	6104      	str	r4, [r0, #16]
/home/ldx1/dev/tee-fusion-repo/build/optee_os_ep-prefix/src/optee_os_ep/lib/libutee/tee_api_objects.c:23
     e6e:	f851 4c04 	ldr.w	r4, [r1, #-4]
/home/ldx1/dev/tee-fusion-repo/build/optee_os_ep-prefix/src/optee_os_ep/lib/libutee/tee_api_objects.c:22
     e72:	f851 5c08 	ldr.w	r5, [r1, #-8]
     e76:	e9c0 5300 	strd	r5, r3, [r0]
/home/ldx1/dev/tee-fusion-repo/build/optee_os_ep-prefix/src/optee_os_ep/lib/libutee/tee_api_objects.c:23
     e7a:	e9c0 4302 	strd	r4, r3, [r0, #8]
/home/ldx1/dev/tee-fusion-repo/build/optee_os_ep-prefix/src/optee_os_ep/lib/libutee/tee_api_objects.c:19 (discriminator 2)
     e7e:	3018      	adds	r0, #24
     e80:	e7ef      	b.n	e62 <__utee_from_attr+0xa>

00000e82 <__utee_from_gp11_attr>:
__utee_from_gp11_attr():
/home/ldx1/dev/tee-fusion-repo/build/optee_os_ep-prefix/src/optee_os_ep/lib/libutee/tee_api_objects.c:37
     e82:	2318      	movs	r3, #24
/home/ldx1/dev/tee-fusion-repo/build/optee_os_ep-prefix/src/optee_os_ep/lib/libutee/tee_api_objects.c:34
     e84:	b530      	push	{r4, r5, lr}
     e86:	fb03 0202 	mla	r2, r3, r2, r0
/home/ldx1/dev/tee-fusion-repo/build/optee_os_ep-prefix/src/optee_os_ep/lib/libutee/tee_api_objects.c:41
     e8a:	2300      	movs	r3, #0
/home/ldx1/dev/tee-fusion-repo/build/optee_os_ep-prefix/src/optee_os_ep/lib/libutee/tee_api_objects.c:37 (discriminator 1)
     e8c:	4290      	cmp	r0, r2
     e8e:	d100      	bne.n	e92 <__utee_from_gp11_attr+0x10>
/home/ldx1/dev/tee-fusion-repo/build/optee_os_ep-prefix/src/optee_os_ep/lib/libutee/tee_api_objects.c:47
     e90:	bd30      	pop	{r4, r5, pc}
/home/ldx1/dev/tee-fusion-repo/build/optee_os_ep-prefix/src/optee_os_ep/lib/libutee/tee_api_objects.c:38
     e92:	680c      	ldr	r4, [r1, #0]
     e94:	310c      	adds	r1, #12
     e96:	6104      	str	r4, [r0, #16]
/home/ldx1/dev/tee-fusion-repo/build/optee_os_ep-prefix/src/optee_os_ep/lib/libutee/tee_api_objects.c:41
     e98:	f851 4c04 	ldr.w	r4, [r1, #-4]
/home/ldx1/dev/tee-fusion-repo/build/optee_os_ep-prefix/src/optee_os_ep/lib/libutee/tee_api_objects.c:40
     e9c:	f851 5c08 	ldr.w	r5, [r1, #-8]
     ea0:	e9c0 5300 	strd	r5, r3, [r0]
/home/ldx1/dev/tee-fusion-repo/build/optee_os_ep-prefix/src/optee_os_ep/lib/libutee/tee_api_objects.c:41
     ea4:	e9c0 4302 	strd	r4, r3, [r0, #8]
/home/ldx1/dev/tee-fusion-repo/build/optee_os_ep-prefix/src/optee_os_ep/lib/libutee/tee_api_objects.c:37 (discriminator 2)
     ea8:	3018      	adds	r0, #24
     eaa:	e7ef      	b.n	e8c <__utee_from_gp11_attr+0xa>

00000eac <TEE_GetObjectInfo>:
TEE_GetObjectInfo():
/home/ldx1/dev/tee-fusion-repo/build/optee_os_ep-prefix/src/optee_os_ep/lib/libutee/tee_api_objects.c:57
     eac:	4a20      	ldr	r2, [pc, #128]	@ (f30 <TEE_GetObjectInfo+0x84>)
     eae:	4b21      	ldr	r3, [pc, #132]	@ (f34 <TEE_GetObjectInfo+0x88>)
     eb0:	447a      	add	r2, pc
     eb2:	b530      	push	{r4, r5, lr}
     eb4:	4605      	mov	r5, r0
     eb6:	b089      	sub	sp, #36	@ 0x24
     eb8:	460c      	mov	r4, r1
     eba:	58d3      	ldr	r3, [r2, r3]
/home/ldx1/dev/tee-fusion-repo/build/optee_os_ep-prefix/src/optee_os_ep/lib/libutee/tee_api_objects.c:58
     ebc:	2100      	movs	r1, #0
     ebe:	221c      	movs	r2, #28
/home/ldx1/dev/tee-fusion-repo/build/optee_os_ep-prefix/src/optee_os_ep/lib/libutee/tee_api_objects.c:57
     ec0:	681b      	ldr	r3, [r3, #0]
     ec2:	9307      	str	r3, [sp, #28]
     ec4:	f04f 0300 	mov.w	r3, #0
/home/ldx1/dev/tee-fusion-repo/build/optee_os_ep-prefix/src/optee_os_ep/lib/libutee/tee_api_objects.c:58
     ec8:	466b      	mov	r3, sp
     eca:	4618      	mov	r0, r3
     ecc:	f00b fbb3 	bl	c636 <memset>
/home/ldx1/dev/tee-fusion-repo/build/optee_os_ep-prefix/src/optee_os_ep/lib/libutee/tee_api_objects.c:61
     ed0:	4601      	mov	r1, r0
     ed2:	4628      	mov	r0, r5
     ed4:	f004 eb96 	blx	5604 <_utee_cryp_obj_get_info>
/home/ldx1/dev/tee-fusion-repo/build/optee_os_ep-prefix/src/optee_os_ep/lib/libutee/tee_api_objects.c:63
     ed8:	b108      	cbz	r0, ede <TEE_GetObjectInfo+0x32>
/home/ldx1/dev/tee-fusion-repo/build/optee_os_ep-prefix/src/optee_os_ep/lib/libutee/tee_api_objects.c:64
     eda:	f003 feb9 	bl	4c50 <TEE_Panic>
/home/ldx1/dev/tee-fusion-repo/build/optee_os_ep-prefix/src/optee_os_ep/lib/libutee/tee_api_objects.c:66
     ede:	9b00      	ldr	r3, [sp, #0]
     ee0:	4a12      	ldr	r2, [pc, #72]	@ (f2c <TEE_GetObjectInfo+0x80>)
     ee2:	4293      	cmp	r3, r2
     ee4:	d112      	bne.n	f0c <TEE_GetObjectInfo+0x60>
/home/ldx1/dev/tee-fusion-repo/build/optee_os_ep-prefix/src/optee_os_ep/lib/libutee/tee_api_objects.c:67
     ee6:	2300      	movs	r3, #0
     ee8:	6063      	str	r3, [r4, #4]
/home/ldx1/dev/tee-fusion-repo/build/optee_os_ep-prefix/src/optee_os_ep/lib/libutee/tee_api_objects.c:68
     eea:	60a3      	str	r3, [r4, #8]
/home/ldx1/dev/tee-fusion-repo/build/optee_os_ep-prefix/src/optee_os_ep/lib/libutee/tee_api_objects.c:69
     eec:	60e3      	str	r3, [r4, #12]
/home/ldx1/dev/tee-fusion-repo/build/optee_os_ep-prefix/src/optee_os_ep/lib/libutee/tee_api_objects.c:70
     eee:	6123      	str	r3, [r4, #16]
/home/ldx1/dev/tee-fusion-repo/build/optee_os_ep-prefix/src/optee_os_ep/lib/libutee/tee_api_objects.c:71
     ef0:	6163      	str	r3, [r4, #20]
/home/ldx1/dev/tee-fusion-repo/build/optee_os_ep-prefix/src/optee_os_ep/lib/libutee/tee_api_objects.c:57
     ef2:	4a11      	ldr	r2, [pc, #68]	@ (f38 <TEE_GetObjectInfo+0x8c>)
/home/ldx1/dev/tee-fusion-repo/build/optee_os_ep-prefix/src/optee_os_ep/lib/libutee/tee_api_objects.c:72
     ef4:	61a3      	str	r3, [r4, #24]
/home/ldx1/dev/tee-fusion-repo/build/optee_os_ep-prefix/src/optee_os_ep/lib/libutee/tee_api_objects.c:82
     ef6:	4b0f      	ldr	r3, [pc, #60]	@ (f34 <TEE_GetObjectInfo+0x88>)
/home/ldx1/dev/tee-fusion-repo/build/optee_os_ep-prefix/src/optee_os_ep/lib/libutee/tee_api_objects.c:57
     ef8:	447a      	add	r2, pc
/home/ldx1/dev/tee-fusion-repo/build/optee_os_ep-prefix/src/optee_os_ep/lib/libutee/tee_api_objects.c:82
     efa:	58d3      	ldr	r3, [r2, r3]
     efc:	681a      	ldr	r2, [r3, #0]
     efe:	9b07      	ldr	r3, [sp, #28]
     f00:	405a      	eors	r2, r3
     f02:	f04f 0300 	mov.w	r3, #0
     f06:	d00e      	beq.n	f26 <TEE_GetObjectInfo+0x7a>
     f08:	f7ff f9e2 	bl	2d0 <__stack_chk_fail>
/home/ldx1/dev/tee-fusion-repo/build/optee_os_ep-prefix/src/optee_os_ep/lib/libutee/tee_api_objects.c:74
     f0c:	6023      	str	r3, [r4, #0]
/home/ldx1/dev/tee-fusion-repo/build/optee_os_ep-prefix/src/optee_os_ep/lib/libutee/tee_api_objects.c:75
     f0e:	9b01      	ldr	r3, [sp, #4]
     f10:	6063      	str	r3, [r4, #4]
/home/ldx1/dev/tee-fusion-repo/build/optee_os_ep-prefix/src/optee_os_ep/lib/libutee/tee_api_objects.c:76
     f12:	9b02      	ldr	r3, [sp, #8]
     f14:	60a3      	str	r3, [r4, #8]
/home/ldx1/dev/tee-fusion-repo/build/optee_os_ep-prefix/src/optee_os_ep/lib/libutee/tee_api_objects.c:77
     f16:	9b03      	ldr	r3, [sp, #12]
     f18:	60e3      	str	r3, [r4, #12]
/home/ldx1/dev/tee-fusion-repo/build/optee_os_ep-prefix/src/optee_os_ep/lib/libutee/tee_api_objects.c:78
     f1a:	9b04      	ldr	r3, [sp, #16]
     f1c:	6123      	str	r3, [r4, #16]
/home/ldx1/dev/tee-fusion-repo/build/optee_os_ep-prefix/src/optee_os_ep/lib/libutee/tee_api_objects.c:79
     f1e:	9b05      	ldr	r3, [sp, #20]
     f20:	6163      	str	r3, [r4, #20]
/home/ldx1/dev/tee-fusion-repo/build/optee_os_ep-prefix/src/optee_os_ep/lib/libutee/tee_api_objects.c:80
     f22:	9b06      	ldr	r3, [sp, #24]
     f24:	e7e5      	b.n	ef2 <TEE_GetObjectInfo+0x46>
/home/ldx1/dev/tee-fusion-repo/build/optee_os_ep-prefix/src/optee_os_ep/lib/libutee/tee_api_objects.c:82
     f26:	b009      	add	sp, #36	@ 0x24
     f28:	bd30      	pop	{r4, r5, pc}
     f2a:	bf00      	nop
     f2c:	a00000be 	.word	0xa00000be
     f30:	0000e1d4 	.word	0x0000e1d4
     f34:	0000000c 	.word	0x0000000c
     f38:	0000e18c 	.word	0x0000e18c

00000f3c <__GP11_TEE_GetObjectInfo>:
__GP11_TEE_GetObjectInfo():
/home/ldx1/dev/tee-fusion-repo/build/optee_os_ep-prefix/src/optee_os_ep/lib/libutee/tee_api_objects.c:86
     f3c:	4a20      	ldr	r2, [pc, #128]	@ (fc0 <__GP11_TEE_GetObjectInfo+0x84>)
     f3e:	4b21      	ldr	r3, [pc, #132]	@ (fc4 <__GP11_TEE_GetObjectInfo+0x88>)
     f40:	447a      	add	r2, pc
     f42:	b530      	push	{r4, r5, lr}
     f44:	4605      	mov	r5, r0
     f46:	b089      	sub	sp, #36	@ 0x24
     f48:	460c      	mov	r4, r1
     f4a:	58d3      	ldr	r3, [r2, r3]
/home/ldx1/dev/tee-fusion-repo/build/optee_os_ep-prefix/src/optee_os_ep/lib/libutee/tee_api_objects.c:87
     f4c:	2100      	movs	r1, #0
     f4e:	221c      	movs	r2, #28
/home/ldx1/dev/tee-fusion-repo/build/optee_os_ep-prefix/src/optee_os_ep/lib/libutee/tee_api_objects.c:86
     f50:	681b      	ldr	r3, [r3, #0]
     f52:	9307      	str	r3, [sp, #28]
     f54:	f04f 0300 	mov.w	r3, #0
/home/ldx1/dev/tee-fusion-repo/build/optee_os_ep-prefix/src/optee_os_ep/lib/libutee/tee_api_objects.c:87
     f58:	466b      	mov	r3, sp
     f5a:	4618      	mov	r0, r3
     f5c:	f00b fb6b 	bl	c636 <memset>
/home/ldx1/dev/tee-fusion-repo/build/optee_os_ep-prefix/src/optee_os_ep/lib/libutee/tee_api_objects.c:90
     f60:	4601      	mov	r1, r0
     f62:	4628      	mov	r0, r5
     f64:	f004 eb4e 	blx	5604 <_utee_cryp_obj_get_info>
/home/ldx1/dev/tee-fusion-repo/build/optee_os_ep-prefix/src/optee_os_ep/lib/libutee/tee_api_objects.c:92
     f68:	b108      	cbz	r0, f6e <__GP11_TEE_GetObjectInfo+0x32>
/home/ldx1/dev/tee-fusion-repo/build/optee_os_ep-prefix/src/optee_os_ep/lib/libutee/tee_api_objects.c:93
     f6a:	f003 fe71 	bl	4c50 <TEE_Panic>
/home/ldx1/dev/tee-fusion-repo/build/optee_os_ep-prefix/src/optee_os_ep/lib/libutee/tee_api_objects.c:95
     f6e:	9b00      	ldr	r3, [sp, #0]
     f70:	4a12      	ldr	r2, [pc, #72]	@ (fbc <__GP11_TEE_GetObjectInfo+0x80>)
     f72:	4293      	cmp	r3, r2
     f74:	d112      	bne.n	f9c <__GP11_TEE_GetObjectInfo+0x60>
/home/ldx1/dev/tee-fusion-repo/build/optee_os_ep-prefix/src/optee_os_ep/lib/libutee/tee_api_objects.c:96
     f76:	2300      	movs	r3, #0
     f78:	6063      	str	r3, [r4, #4]
/home/ldx1/dev/tee-fusion-repo/build/optee_os_ep-prefix/src/optee_os_ep/lib/libutee/tee_api_objects.c:97
     f7a:	60a3      	str	r3, [r4, #8]
/home/ldx1/dev/tee-fusion-repo/build/optee_os_ep-prefix/src/optee_os_ep/lib/libutee/tee_api_objects.c:98
     f7c:	60e3      	str	r3, [r4, #12]
/home/ldx1/dev/tee-fusion-repo/build/optee_os_ep-prefix/src/optee_os_ep/lib/libutee/tee_api_objects.c:99
     f7e:	6123      	str	r3, [r4, #16]
/home/ldx1/dev/tee-fusion-repo/build/optee_os_ep-prefix/src/optee_os_ep/lib/libutee/tee_api_objects.c:100
     f80:	6163      	str	r3, [r4, #20]
/home/ldx1/dev/tee-fusion-repo/build/optee_os_ep-prefix/src/optee_os_ep/lib/libutee/tee_api_objects.c:86
     f82:	4a11      	ldr	r2, [pc, #68]	@ (fc8 <__GP11_TEE_GetObjectInfo+0x8c>)
/home/ldx1/dev/tee-fusion-repo/build/optee_os_ep-prefix/src/optee_os_ep/lib/libutee/tee_api_objects.c:101
     f84:	61a3      	str	r3, [r4, #24]
/home/ldx1/dev/tee-fusion-repo/build/optee_os_ep-prefix/src/optee_os_ep/lib/libutee/tee_api_objects.c:111
     f86:	4b0f      	ldr	r3, [pc, #60]	@ (fc4 <__GP11_TEE_GetObjectInfo+0x88>)
/home/ldx1/dev/tee-fusion-repo/build/optee_os_ep-prefix/src/optee_os_ep/lib/libutee/tee_api_objects.c:86
     f88:	447a      	add	r2, pc
/home/ldx1/dev/tee-fusion-repo/build/optee_os_ep-prefix/src/optee_os_ep/lib/libutee/tee_api_objects.c:111
     f8a:	58d3      	ldr	r3, [r2, r3]
     f8c:	681a      	ldr	r2, [r3, #0]
     f8e:	9b07      	ldr	r3, [sp, #28]
     f90:	405a      	eors	r2, r3
     f92:	f04f 0300 	mov.w	r3, #0
     f96:	d00e      	beq.n	fb6 <__GP11_TEE_GetObjectInfo+0x7a>
     f98:	f7ff f99a 	bl	2d0 <__stack_chk_fail>
/home/ldx1/dev/tee-fusion-repo/build/optee_os_ep-prefix/src/optee_os_ep/lib/libutee/tee_api_objects.c:103
     f9c:	6023      	str	r3, [r4, #0]
/home/ldx1/dev/tee-fusion-repo/build/optee_os_ep-prefix/src/optee_os_ep/lib/libutee/tee_api_objects.c:104
     f9e:	9b01      	ldr	r3, [sp, #4]
     fa0:	6063      	str	r3, [r4, #4]
/home/ldx1/dev/tee-fusion-repo/build/optee_os_ep-prefix/src/optee_os_ep/lib/libutee/tee_api_objects.c:105
     fa2:	9b02      	ldr	r3, [sp, #8]
     fa4:	60a3      	str	r3, [r4, #8]
/home/ldx1/dev/tee-fusion-repo/build/optee_os_ep-prefix/src/optee_os_ep/lib/libutee/tee_api_objects.c:106
     fa6:	9b03      	ldr	r3, [sp, #12]
     fa8:	60e3      	str	r3, [r4, #12]
/home/ldx1/dev/tee-fusion-repo/build/optee_os_ep-prefix/src/optee_os_ep/lib/libutee/tee_api_objects.c:107
     faa:	9b04      	ldr	r3, [sp, #16]
     fac:	6123      	str	r3, [r4, #16]
/home/ldx1/dev/tee-fusion-repo/build/optee_os_ep-prefix/src/optee_os_ep/lib/libutee/tee_api_objects.c:108
     fae:	9b05      	ldr	r3, [sp, #20]
     fb0:	6163      	str	r3, [r4, #20]
/home/ldx1/dev/tee-fusion-repo/build/optee_os_ep-prefix/src/optee_os_ep/lib/libutee/tee_api_objects.c:109
     fb2:	9b06      	ldr	r3, [sp, #24]
     fb4:	e7e5      	b.n	f82 <__GP11_TEE_GetObjectInfo+0x46>
/home/ldx1/dev/tee-fusion-repo/build/optee_os_ep-prefix/src/optee_os_ep/lib/libutee/tee_api_objects.c:111
     fb6:	b009      	add	sp, #36	@ 0x24
     fb8:	bd30      	pop	{r4, r5, pc}
     fba:	bf00      	nop
     fbc:	a00000be 	.word	0xa00000be
     fc0:	0000e144 	.word	0x0000e144
     fc4:	0000000c 	.word	0x0000000c
     fc8:	0000e0fc 	.word	0x0000e0fc

00000fcc <TEE_GetObjectInfo1>:
TEE_GetObjectInfo1():
/home/ldx1/dev/tee-fusion-repo/build/optee_os_ep-prefix/src/optee_os_ep/lib/libutee/tee_api_objects.c:115
     fcc:	4a1e      	ldr	r2, [pc, #120]	@ (1048 <TEE_GetObjectInfo1+0x7c>)
     fce:	4b1f      	ldr	r3, [pc, #124]	@ (104c <TEE_GetObjectInfo1+0x80>)
     fd0:	447a      	add	r2, pc
     fd2:	b530      	push	{r4, r5, lr}
     fd4:	4605      	mov	r5, r0
     fd6:	b089      	sub	sp, #36	@ 0x24
     fd8:	460c      	mov	r4, r1
     fda:	58d3      	ldr	r3, [r2, r3]
/home/ldx1/dev/tee-fusion-repo/build/optee_os_ep-prefix/src/optee_os_ep/lib/libutee/tee_api_objects.c:116
     fdc:	2100      	movs	r1, #0
     fde:	221c      	movs	r2, #28
/home/ldx1/dev/tee-fusion-repo/build/optee_os_ep-prefix/src/optee_os_ep/lib/libutee/tee_api_objects.c:115
     fe0:	681b      	ldr	r3, [r3, #0]
     fe2:	9307      	str	r3, [sp, #28]
     fe4:	f04f 0300 	mov.w	r3, #0
/home/ldx1/dev/tee-fusion-repo/build/optee_os_ep-prefix/src/optee_os_ep/lib/libutee/tee_api_objects.c:116
     fe8:	466b      	mov	r3, sp
     fea:	4618      	mov	r0, r3
     fec:	f00b fb23 	bl	c636 <memset>
/home/ldx1/dev/tee-fusion-repo/build/optee_os_ep-prefix/src/optee_os_ep/lib/libutee/tee_api_objects.c:119
     ff0:	4601      	mov	r1, r0
     ff2:	4628      	mov	r0, r5
     ff4:	f004 eb06 	blx	5604 <_utee_cryp_obj_get_info>
/home/ldx1/dev/tee-fusion-repo/build/optee_os_ep-prefix/src/optee_os_ep/lib/libutee/tee_api_objects.c:121
     ff8:	4605      	mov	r5, r0
     ffa:	b130      	cbz	r0, 100a <TEE_GetObjectInfo1+0x3e>
/home/ldx1/dev/tee-fusion-repo/build/optee_os_ep-prefix/src/optee_os_ep/lib/libutee/tee_api_objects.c:121 (discriminator 1)
     ffc:	4b11      	ldr	r3, [pc, #68]	@ (1044 <TEE_GetObjectInfo1+0x78>)
     ffe:	f020 0202 	bic.w	r2, r0, #2
    1002:	429a      	cmp	r2, r3
    1004:	d001      	beq.n	100a <TEE_GetObjectInfo1+0x3e>
/home/ldx1/dev/tee-fusion-repo/build/optee_os_ep-prefix/src/optee_os_ep/lib/libutee/tee_api_objects.c:124
    1006:	f003 fe23 	bl	4c50 <TEE_Panic>
/home/ldx1/dev/tee-fusion-repo/build/optee_os_ep-prefix/src/optee_os_ep/lib/libutee/tee_api_objects.c:126
    100a:	9b00      	ldr	r3, [sp, #0]
    100c:	6023      	str	r3, [r4, #0]
/home/ldx1/dev/tee-fusion-repo/build/optee_os_ep-prefix/src/optee_os_ep/lib/libutee/tee_api_objects.c:127
    100e:	9b01      	ldr	r3, [sp, #4]
    1010:	6063      	str	r3, [r4, #4]
/home/ldx1/dev/tee-fusion-repo/build/optee_os_ep-prefix/src/optee_os_ep/lib/libutee/tee_api_objects.c:128
    1012:	9b02      	ldr	r3, [sp, #8]
    1014:	60a3      	str	r3, [r4, #8]
/home/ldx1/dev/tee-fusion-repo/build/optee_os_ep-prefix/src/optee_os_ep/lib/libutee/tee_api_objects.c:129
    1016:	9b03      	ldr	r3, [sp, #12]
    1018:	60e3      	str	r3, [r4, #12]
/home/ldx1/dev/tee-fusion-repo/build/optee_os_ep-prefix/src/optee_os_ep/lib/libutee/tee_api_objects.c:130
    101a:	9b04      	ldr	r3, [sp, #16]
    101c:	6123      	str	r3, [r4, #16]
/home/ldx1/dev/tee-fusion-repo/build/optee_os_ep-prefix/src/optee_os_ep/lib/libutee/tee_api_objects.c:131
    101e:	9b05      	ldr	r3, [sp, #20]
    1020:	6163      	str	r3, [r4, #20]
/home/ldx1/dev/tee-fusion-repo/build/optee_os_ep-prefix/src/optee_os_ep/lib/libutee/tee_api_objects.c:115
    1022:	4a0b      	ldr	r2, [pc, #44]	@ (1050 <TEE_GetObjectInfo1+0x84>)
/home/ldx1/dev/tee-fusion-repo/build/optee_os_ep-prefix/src/optee_os_ep/lib/libutee/tee_api_objects.c:132
    1024:	9b06      	ldr	r3, [sp, #24]
    1026:	61a3      	str	r3, [r4, #24]
/home/ldx1/dev/tee-fusion-repo/build/optee_os_ep-prefix/src/optee_os_ep/lib/libutee/tee_api_objects.c:115
    1028:	447a      	add	r2, pc
/home/ldx1/dev/tee-fusion-repo/build/optee_os_ep-prefix/src/optee_os_ep/lib/libutee/tee_api_objects.c:135
    102a:	4b08      	ldr	r3, [pc, #32]	@ (104c <TEE_GetObjectInfo1+0x80>)
    102c:	58d3      	ldr	r3, [r2, r3]
    102e:	681a      	ldr	r2, [r3, #0]
    1030:	9b07      	ldr	r3, [sp, #28]
    1032:	405a      	eors	r2, r3
    1034:	f04f 0300 	mov.w	r3, #0
    1038:	d001      	beq.n	103e <TEE_GetObjectInfo1+0x72>
    103a:	f7ff f949 	bl	2d0 <__stack_chk_fail>
    103e:	4628      	mov	r0, r5
    1040:	b009      	add	sp, #36	@ 0x24
    1042:	bd30      	pop	{r4, r5, pc}
    1044:	f0100001 	.word	0xf0100001
    1048:	0000e0b4 	.word	0x0000e0b4
    104c:	0000000c 	.word	0x0000000c
    1050:	0000e05c 	.word	0x0000e05c

00001054 <__GP11_TEE_GetObjectInfo1>:
__GP11_TEE_GetObjectInfo1():
/home/ldx1/dev/tee-fusion-repo/build/optee_os_ep-prefix/src/optee_os_ep/lib/libutee/tee_api_objects.c:139
    1054:	4a1e      	ldr	r2, [pc, #120]	@ (10d0 <__GP11_TEE_GetObjectInfo1+0x7c>)
    1056:	4b1f      	ldr	r3, [pc, #124]	@ (10d4 <__GP11_TEE_GetObjectInfo1+0x80>)
    1058:	447a      	add	r2, pc
    105a:	b530      	push	{r4, r5, lr}
    105c:	4605      	mov	r5, r0
    105e:	b089      	sub	sp, #36	@ 0x24
    1060:	460c      	mov	r4, r1
    1062:	58d3      	ldr	r3, [r2, r3]
/home/ldx1/dev/tee-fusion-repo/build/optee_os_ep-prefix/src/optee_os_ep/lib/libutee/tee_api_objects.c:140
    1064:	2100      	movs	r1, #0
    1066:	221c      	movs	r2, #28
/home/ldx1/dev/tee-fusion-repo/build/optee_os_ep-prefix/src/optee_os_ep/lib/libutee/tee_api_objects.c:139
    1068:	681b      	ldr	r3, [r3, #0]
    106a:	9307      	str	r3, [sp, #28]
    106c:	f04f 0300 	mov.w	r3, #0
/home/ldx1/dev/tee-fusion-repo/build/optee_os_ep-prefix/src/optee_os_ep/lib/libutee/tee_api_objects.c:140
    1070:	466b      	mov	r3, sp
    1072:	4618      	mov	r0, r3
    1074:	f00b fadf 	bl	c636 <memset>
/home/ldx1/dev/tee-fusion-repo/build/optee_os_ep-prefix/src/optee_os_ep/lib/libutee/tee_api_objects.c:143
    1078:	4601      	mov	r1, r0
    107a:	4628      	mov	r0, r5
    107c:	f004 eac2 	blx	5604 <_utee_cryp_obj_get_info>
/home/ldx1/dev/tee-fusion-repo/build/optee_os_ep-prefix/src/optee_os_ep/lib/libutee/tee_api_objects.c:145
    1080:	4605      	mov	r5, r0
    1082:	b130      	cbz	r0, 1092 <__GP11_TEE_GetObjectInfo1+0x3e>
/home/ldx1/dev/tee-fusion-repo/build/optee_os_ep-prefix/src/optee_os_ep/lib/libutee/tee_api_objects.c:145 (discriminator 1)
    1084:	4b11      	ldr	r3, [pc, #68]	@ (10cc <__GP11_TEE_GetObjectInfo1+0x78>)
    1086:	f020 0202 	bic.w	r2, r0, #2
    108a:	429a      	cmp	r2, r3
    108c:	d001      	beq.n	1092 <__GP11_TEE_GetObjectInfo1+0x3e>
/home/ldx1/dev/tee-fusion-repo/build/optee_os_ep-prefix/src/optee_os_ep/lib/libutee/tee_api_objects.c:148
    108e:	f003 fddf 	bl	4c50 <TEE_Panic>
/home/ldx1/dev/tee-fusion-repo/build/optee_os_ep-prefix/src/optee_os_ep/lib/libutee/tee_api_objects.c:150
    1092:	9b00      	ldr	r3, [sp, #0]
    1094:	6023      	str	r3, [r4, #0]
/home/ldx1/dev/tee-fusion-repo/build/optee_os_ep-prefix/src/optee_os_ep/lib/libutee/tee_api_objects.c:151
    1096:	9b01      	ldr	r3, [sp, #4]
    1098:	6063      	str	r3, [r4, #4]
/home/ldx1/dev/tee-fusion-repo/build/optee_os_ep-prefix/src/optee_os_ep/lib/libutee/tee_api_objects.c:152
    109a:	9b02      	ldr	r3, [sp, #8]
    109c:	60a3      	str	r3, [r4, #8]
/home/ldx1/dev/tee-fusion-repo/build/optee_os_ep-prefix/src/optee_os_ep/lib/libutee/tee_api_objects.c:153
    109e:	9b03      	ldr	r3, [sp, #12]
    10a0:	60e3      	str	r3, [r4, #12]
/home/ldx1/dev/tee-fusion-repo/build/optee_os_ep-prefix/src/optee_os_ep/lib/libutee/tee_api_objects.c:154
    10a2:	9b04      	ldr	r3, [sp, #16]
    10a4:	6123      	str	r3, [r4, #16]
/home/ldx1/dev/tee-fusion-repo/build/optee_os_ep-prefix/src/optee_os_ep/lib/libutee/tee_api_objects.c:155
    10a6:	9b05      	ldr	r3, [sp, #20]
    10a8:	6163      	str	r3, [r4, #20]
/home/ldx1/dev/tee-fusion-repo/build/optee_os_ep-prefix/src/optee_os_ep/lib/libutee/tee_api_objects.c:139
    10aa:	4a0b      	ldr	r2, [pc, #44]	@ (10d8 <__GP11_TEE_GetObjectInfo1+0x84>)
/home/ldx1/dev/tee-fusion-repo/build/optee_os_ep-prefix/src/optee_os_ep/lib/libutee/tee_api_objects.c:156
    10ac:	9b06      	ldr	r3, [sp, #24]
    10ae:	61a3      	str	r3, [r4, #24]
/home/ldx1/dev/tee-fusion-repo/build/optee_os_ep-prefix/src/optee_os_ep/lib/libutee/tee_api_objects.c:139
    10b0:	447a      	add	r2, pc
/home/ldx1/dev/tee-fusion-repo/build/optee_os_ep-prefix/src/optee_os_ep/lib/libutee/tee_api_objects.c:159
    10b2:	4b08      	ldr	r3, [pc, #32]	@ (10d4 <__GP11_TEE_GetObjectInfo1+0x80>)
    10b4:	58d3      	ldr	r3, [r2, r3]
    10b6:	681a      	ldr	r2, [r3, #0]
    10b8:	9b07      	ldr	r3, [sp, #28]
    10ba:	405a      	eors	r2, r3
    10bc:	f04f 0300 	mov.w	r3, #0
    10c0:	d001      	beq.n	10c6 <__GP11_TEE_GetObjectInfo1+0x72>
    10c2:	f7ff f905 	bl	2d0 <__stack_chk_fail>
    10c6:	4628      	mov	r0, r5
    10c8:	b009      	add	sp, #36	@ 0x24
    10ca:	bd30      	pop	{r4, r5, pc}
    10cc:	f0100001 	.word	0xf0100001
    10d0:	0000e02c 	.word	0x0000e02c
    10d4:	0000000c 	.word	0x0000000c
    10d8:	0000dfd4 	.word	0x0000dfd4

000010dc <TEE_RestrictObjectUsage1>:
TEE_RestrictObjectUsage1():
/home/ldx1/dev/tee-fusion-repo/build/optee_os_ep-prefix/src/optee_os_ep/lib/libutee/tee_api_objects.c:183
    10dc:	b510      	push	{r4, lr}
/home/ldx1/dev/tee-fusion-repo/build/optee_os_ep-prefix/src/optee_os_ep/lib/libutee/tee_api_objects.c:186
    10de:	f004 ea9c 	blx	5618 <_utee_cryp_obj_restrict_usage>
/home/ldx1/dev/tee-fusion-repo/build/optee_os_ep-prefix/src/optee_os_ep/lib/libutee/tee_api_objects.c:189
    10e2:	4604      	mov	r4, r0
    10e4:	b130      	cbz	r0, 10f4 <TEE_RestrictObjectUsage1+0x18>
/home/ldx1/dev/tee-fusion-repo/build/optee_os_ep-prefix/src/optee_os_ep/lib/libutee/tee_api_objects.c:189 (discriminator 1)
    10e6:	4b04      	ldr	r3, [pc, #16]	@ (10f8 <TEE_RestrictObjectUsage1+0x1c>)
    10e8:	f020 0202 	bic.w	r2, r0, #2
    10ec:	429a      	cmp	r2, r3
    10ee:	d001      	beq.n	10f4 <TEE_RestrictObjectUsage1+0x18>
/home/ldx1/dev/tee-fusion-repo/build/optee_os_ep-prefix/src/optee_os_ep/lib/libutee/tee_api_objects.c:192
    10f0:	f003 fdae 	bl	4c50 <TEE_Panic>
/home/ldx1/dev/tee-fusion-repo/build/optee_os_ep-prefix/src/optee_os_ep/lib/libutee/tee_api_objects.c:195
    10f4:	4620      	mov	r0, r4
    10f6:	bd10      	pop	{r4, pc}
    10f8:	f0100001 	.word	0xf0100001

000010fc <TEE_RestrictObjectUsage>:
TEE_RestrictObjectUsage():
/home/ldx1/dev/tee-fusion-repo/build/optee_os_ep-prefix/src/optee_os_ep/lib/libutee/tee_api_objects.c:168
    10fc:	4a18      	ldr	r2, [pc, #96]	@ (1160 <TEE_RestrictObjectUsage+0x64>)
    10fe:	4b19      	ldr	r3, [pc, #100]	@ (1164 <TEE_RestrictObjectUsage+0x68>)
    1100:	447a      	add	r2, pc
    1102:	b530      	push	{r4, r5, lr}
    1104:	4604      	mov	r4, r0
    1106:	b089      	sub	sp, #36	@ 0x24
    1108:	460d      	mov	r5, r1
    110a:	58d3      	ldr	r3, [r2, r3]
/home/ldx1/dev/tee-fusion-repo/build/optee_os_ep-prefix/src/optee_os_ep/lib/libutee/tee_api_objects.c:169
    110c:	2100      	movs	r1, #0
    110e:	221c      	movs	r2, #28
/home/ldx1/dev/tee-fusion-repo/build/optee_os_ep-prefix/src/optee_os_ep/lib/libutee/tee_api_objects.c:168
    1110:	681b      	ldr	r3, [r3, #0]
    1112:	9307      	str	r3, [sp, #28]
    1114:	f04f 0300 	mov.w	r3, #0
/home/ldx1/dev/tee-fusion-repo/build/optee_os_ep-prefix/src/optee_os_ep/lib/libutee/tee_api_objects.c:169
    1118:	466b      	mov	r3, sp
    111a:	4618      	mov	r0, r3
    111c:	f00b fa8b 	bl	c636 <memset>
/home/ldx1/dev/tee-fusion-repo/build/optee_os_ep-prefix/src/optee_os_ep/lib/libutee/tee_api_objects.c:172
    1120:	4601      	mov	r1, r0
    1122:	4620      	mov	r0, r4
    1124:	f004 ea6e 	blx	5604 <_utee_cryp_obj_get_info>
/home/ldx1/dev/tee-fusion-repo/build/optee_os_ep-prefix/src/optee_os_ep/lib/libutee/tee_api_objects.c:173
    1128:	4b0c      	ldr	r3, [pc, #48]	@ (115c <TEE_RestrictObjectUsage+0x60>)
    112a:	9a00      	ldr	r2, [sp, #0]
    112c:	429a      	cmp	r2, r3
    112e:	d006      	beq.n	113e <TEE_RestrictObjectUsage+0x42>
/home/ldx1/dev/tee-fusion-repo/build/optee_os_ep-prefix/src/optee_os_ep/lib/libutee/tee_api_objects.c:176
    1130:	4629      	mov	r1, r5
    1132:	4620      	mov	r0, r4
    1134:	f7ff ffd2 	bl	10dc <TEE_RestrictObjectUsage1>
/home/ldx1/dev/tee-fusion-repo/build/optee_os_ep-prefix/src/optee_os_ep/lib/libutee/tee_api_objects.c:178
    1138:	b108      	cbz	r0, 113e <TEE_RestrictObjectUsage+0x42>
/home/ldx1/dev/tee-fusion-repo/build/optee_os_ep-prefix/src/optee_os_ep/lib/libutee/tee_api_objects.c:179
    113a:	f003 fd89 	bl	4c50 <TEE_Panic>
/home/ldx1/dev/tee-fusion-repo/build/optee_os_ep-prefix/src/optee_os_ep/lib/libutee/tee_api_objects.c:168
    113e:	4a0a      	ldr	r2, [pc, #40]	@ (1168 <TEE_RestrictObjectUsage+0x6c>)
/home/ldx1/dev/tee-fusion-repo/build/optee_os_ep-prefix/src/optee_os_ep/lib/libutee/tee_api_objects.c:180
    1140:	4b08      	ldr	r3, [pc, #32]	@ (1164 <TEE_RestrictObjectUsage+0x68>)
/home/ldx1/dev/tee-fusion-repo/build/optee_os_ep-prefix/src/optee_os_ep/lib/libutee/tee_api_objects.c:168
    1142:	447a      	add	r2, pc
/home/ldx1/dev/tee-fusion-repo/build/optee_os_ep-prefix/src/optee_os_ep/lib/libutee/tee_api_objects.c:180
    1144:	58d3      	ldr	r3, [r2, r3]
    1146:	681a      	ldr	r2, [r3, #0]
    1148:	9b07      	ldr	r3, [sp, #28]
    114a:	405a      	eors	r2, r3
    114c:	f04f 0300 	mov.w	r3, #0
    1150:	d001      	beq.n	1156 <TEE_RestrictObjectUsage+0x5a>
    1152:	f7ff f8bd 	bl	2d0 <__stack_chk_fail>
    1156:	b009      	add	sp, #36	@ 0x24
    1158:	bd30      	pop	{r4, r5, pc}
    115a:	bf00      	nop
    115c:	a00000be 	.word	0xa00000be
    1160:	0000df84 	.word	0x0000df84
    1164:	0000000c 	.word	0x0000000c
    1168:	0000df42 	.word	0x0000df42

0000116c <TEE_GetObjectBufferAttribute>:
TEE_GetObjectBufferAttribute():
/home/ldx1/dev/tee-fusion-repo/build/optee_os_ep-prefix/src/optee_os_ep/lib/libutee/tee_api_objects.c:200
    116c:	e92d 41f0 	stmdb	sp!, {r4, r5, r6, r7, r8, lr}
    1170:	4690      	mov	r8, r2
    1172:	4a2b      	ldr	r2, [pc, #172]	@ (1220 <TEE_GetObjectBufferAttribute+0xb4>)
    1174:	461d      	mov	r5, r3
    1176:	4b2b      	ldr	r3, [pc, #172]	@ (1224 <TEE_GetObjectBufferAttribute+0xb8>)
    1178:	447a      	add	r2, pc
    117a:	b08a      	sub	sp, #40	@ 0x28
/home/ldx1/dev/tee-fusion-repo/build/optee_os_ep-prefix/src/optee_os_ep/lib/libutee/tee_api_objects.c:201
    117c:	ac02      	add	r4, sp, #8
/home/ldx1/dev/tee-fusion-repo/build/optee_os_ep-prefix/src/optee_os_ep/lib/libutee/tee_api_objects.c:200
    117e:	4606      	mov	r6, r0
    1180:	460f      	mov	r7, r1
/home/ldx1/dev/tee-fusion-repo/build/optee_os_ep-prefix/src/optee_os_ep/lib/libutee/tee_api_objects.c:201
    1182:	4620      	mov	r0, r4
/home/ldx1/dev/tee-fusion-repo/build/optee_os_ep-prefix/src/optee_os_ep/lib/libutee/tee_api_objects.c:200
    1184:	58d3      	ldr	r3, [r2, r3]
/home/ldx1/dev/tee-fusion-repo/build/optee_os_ep-prefix/src/optee_os_ep/lib/libutee/tee_api_objects.c:201
    1186:	2100      	movs	r1, #0
    1188:	221c      	movs	r2, #28
/home/ldx1/dev/tee-fusion-repo/build/optee_os_ep-prefix/src/optee_os_ep/lib/libutee/tee_api_objects.c:200
    118a:	681b      	ldr	r3, [r3, #0]
    118c:	9309      	str	r3, [sp, #36]	@ 0x24
    118e:	f04f 0300 	mov.w	r3, #0
/home/ldx1/dev/tee-fusion-repo/build/optee_os_ep-prefix/src/optee_os_ep/lib/libutee/tee_api_objects.c:201
    1192:	f00b fa50 	bl	c636 <memset>
/home/ldx1/dev/tee-fusion-repo/build/optee_os_ep-prefix/src/optee_os_ep/lib/libutee/tee_api_objects.c:203
    1196:	efc0 0010 	vmov.i32	d16, #0	@ 0x00000000
/home/ldx1/dev/tee-fusion-repo/build/optee_os_ep-prefix/src/optee_os_ep/lib/libutee/tee_api_objects.c:205
    119a:	2104      	movs	r1, #4
    119c:	4628      	mov	r0, r5
/home/ldx1/dev/tee-fusion-repo/build/optee_os_ep-prefix/src/optee_os_ep/lib/libutee/tee_api_objects.c:203
    119e:	edcd 0b00 	vstr	d16, [sp]
/home/ldx1/dev/tee-fusion-repo/build/optee_os_ep-prefix/src/optee_os_ep/lib/libutee/tee_api_objects.c:205
    11a2:	f003 fd9a 	bl	4cda <__utee_check_inout_annotation>
/home/ldx1/dev/tee-fusion-repo/build/optee_os_ep-prefix/src/optee_os_ep/lib/libutee/tee_api_objects.c:207
    11a6:	4621      	mov	r1, r4
    11a8:	4630      	mov	r0, r6
    11aa:	f004 ea2c 	blx	5604 <_utee_cryp_obj_get_info>
/home/ldx1/dev/tee-fusion-repo/build/optee_os_ep-prefix/src/optee_os_ep/lib/libutee/tee_api_objects.c:208
    11ae:	4604      	mov	r4, r0
    11b0:	b970      	cbnz	r0, 11d0 <TEE_GetObjectBufferAttribute+0x64>
/home/ldx1/dev/tee-fusion-repo/build/optee_os_ep-prefix/src/optee_os_ep/lib/libutee/tee_api_objects.c:212
    11b2:	00bb      	lsls	r3, r7, #2
    11b4:	d42a      	bmi.n	120c <TEE_GetObjectBufferAttribute+0xa0>
/home/ldx1/dev/tee-fusion-repo/build/optee_os_ep-prefix/src/optee_os_ep/lib/libutee/tee_api_objects.c:217
    11b6:	682b      	ldr	r3, [r5, #0]
/home/ldx1/dev/tee-fusion-repo/build/optee_os_ep-prefix/src/optee_os_ep/lib/libutee/tee_api_objects.c:218
    11b8:	4642      	mov	r2, r8
/home/ldx1/dev/tee-fusion-repo/build/optee_os_ep-prefix/src/optee_os_ep/lib/libutee/tee_api_objects.c:217
    11ba:	e9cd 3000 	strd	r3, r0, [sp]
/home/ldx1/dev/tee-fusion-repo/build/optee_os_ep-prefix/src/optee_os_ep/lib/libutee/tee_api_objects.c:218
    11be:	4639      	mov	r1, r7
    11c0:	466b      	mov	r3, sp
    11c2:	4630      	mov	r0, r6
    11c4:	f004 ea32 	blx	562c <_utee_cryp_obj_get_attr>
/home/ldx1/dev/tee-fusion-repo/build/optee_os_ep-prefix/src/optee_os_ep/lib/libutee/tee_api_objects.c:220
    11c8:	9b00      	ldr	r3, [sp, #0]
/home/ldx1/dev/tee-fusion-repo/build/optee_os_ep-prefix/src/optee_os_ep/lib/libutee/tee_api_objects.c:223
    11ca:	4604      	mov	r4, r0
/home/ldx1/dev/tee-fusion-repo/build/optee_os_ep-prefix/src/optee_os_ep/lib/libutee/tee_api_objects.c:220
    11cc:	602b      	str	r3, [r5, #0]
/home/ldx1/dev/tee-fusion-repo/build/optee_os_ep-prefix/src/optee_os_ep/lib/libutee/tee_api_objects.c:223
    11ce:	b188      	cbz	r0, 11f4 <TEE_GetObjectBufferAttribute+0x88>
/home/ldx1/dev/tee-fusion-repo/build/optee_os_ep-prefix/src/optee_os_ep/lib/libutee/tee_api_objects.c:223 (discriminator 1)
    11d0:	4b11      	ldr	r3, [pc, #68]	@ (1218 <TEE_GetObjectBufferAttribute+0xac>)
    11d2:	429c      	cmp	r4, r3
    11d4:	d00e      	beq.n	11f4 <TEE_GetObjectBufferAttribute+0x88>
/home/ldx1/dev/tee-fusion-repo/build/optee_os_ep-prefix/src/optee_os_ep/lib/libutee/tee_api_objects.c:224
    11d6:	3308      	adds	r3, #8
    11d8:	429c      	cmp	r4, r3
    11da:	d00b      	beq.n	11f4 <TEE_GetObjectBufferAttribute+0x88>
/home/ldx1/dev/tee-fusion-repo/build/optee_os_ep-prefix/src/optee_os_ep/lib/libutee/tee_api_objects.c:225
    11dc:	f1a3 637e 	sub.w	r3, r3, #266338304	@ 0xfe00000
    11e0:	f1a3 130f 	sub.w	r3, r3, #983055	@ 0xf000f
    11e4:	429c      	cmp	r4, r3
    11e6:	d005      	beq.n	11f4 <TEE_GetObjectBufferAttribute+0x88>
/home/ldx1/dev/tee-fusion-repo/build/optee_os_ep-prefix/src/optee_os_ep/lib/libutee/tee_api_objects.c:226
    11e8:	3302      	adds	r3, #2
    11ea:	429c      	cmp	r4, r3
    11ec:	d002      	beq.n	11f4 <TEE_GetObjectBufferAttribute+0x88>
/home/ldx1/dev/tee-fusion-repo/build/optee_os_ep-prefix/src/optee_os_ep/lib/libutee/tee_api_objects.c:228
    11ee:	4620      	mov	r0, r4
    11f0:	f003 fd2e 	bl	4c50 <TEE_Panic>
/home/ldx1/dev/tee-fusion-repo/build/optee_os_ep-prefix/src/optee_os_ep/lib/libutee/tee_api_objects.c:200
    11f4:	4a0c      	ldr	r2, [pc, #48]	@ (1228 <TEE_GetObjectBufferAttribute+0xbc>)
/home/ldx1/dev/tee-fusion-repo/build/optee_os_ep-prefix/src/optee_os_ep/lib/libutee/tee_api_objects.c:231
    11f6:	4b0b      	ldr	r3, [pc, #44]	@ (1224 <TEE_GetObjectBufferAttribute+0xb8>)
/home/ldx1/dev/tee-fusion-repo/build/optee_os_ep-prefix/src/optee_os_ep/lib/libutee/tee_api_objects.c:200
    11f8:	447a      	add	r2, pc
/home/ldx1/dev/tee-fusion-repo/build/optee_os_ep-prefix/src/optee_os_ep/lib/libutee/tee_api_objects.c:231
    11fa:	58d3      	ldr	r3, [r2, r3]
    11fc:	681a      	ldr	r2, [r3, #0]
    11fe:	9b09      	ldr	r3, [sp, #36]	@ 0x24
    1200:	405a      	eors	r2, r3
    1202:	f04f 0300 	mov.w	r3, #0
    1206:	d003      	beq.n	1210 <TEE_GetObjectBufferAttribute+0xa4>
    1208:	f7ff f862 	bl	2d0 <__stack_chk_fail>
/home/ldx1/dev/tee-fusion-repo/build/optee_os_ep-prefix/src/optee_os_ep/lib/libutee/tee_api_objects.c:213
    120c:	4c03      	ldr	r4, [pc, #12]	@ (121c <TEE_GetObjectBufferAttribute+0xb0>)
    120e:	e7ee      	b.n	11ee <TEE_GetObjectBufferAttribute+0x82>
/home/ldx1/dev/tee-fusion-repo/build/optee_os_ep-prefix/src/optee_os_ep/lib/libutee/tee_api_objects.c:231
    1210:	4620      	mov	r0, r4
    1212:	b00a      	add	sp, #40	@ 0x28
    1214:	e8bd 81f0 	ldmia.w	sp!, {r4, r5, r6, r7, r8, pc}
    1218:	ffff0008 	.word	0xffff0008
    121c:	ffff0006 	.word	0xffff0006
    1220:	0000df0c 	.word	0x0000df0c
    1224:	0000000c 	.word	0x0000000c
    1228:	0000de8c 	.word	0x0000de8c

0000122c <__GP11_TEE_GetObjectBufferAttribute>:
__GP11_TEE_GetObjectBufferAttribute():
/home/ldx1/dev/tee-fusion-repo/build/optee_os_ep-prefix/src/optee_os_ep/lib/libutee/tee_api_objects.c:236
    122c:	b5f7      	push	{r0, r1, r2, r4, r5, r6, r7, lr}
    122e:	4615      	mov	r5, r2
    1230:	4a14      	ldr	r2, [pc, #80]	@ (1284 <__GP11_TEE_GetObjectBufferAttribute+0x58>)
    1232:	461c      	mov	r4, r3
    1234:	4b14      	ldr	r3, [pc, #80]	@ (1288 <__GP11_TEE_GetObjectBufferAttribute+0x5c>)
    1236:	447a      	add	r2, pc
    1238:	4606      	mov	r6, r0
    123a:	460f      	mov	r7, r1
/home/ldx1/dev/tee-fusion-repo/build/optee_os_ep-prefix/src/optee_os_ep/lib/libutee/tee_api_objects.c:240
    123c:	4620      	mov	r0, r4
    123e:	2104      	movs	r1, #4
/home/ldx1/dev/tee-fusion-repo/build/optee_os_ep-prefix/src/optee_os_ep/lib/libutee/tee_api_objects.c:236
    1240:	58d3      	ldr	r3, [r2, r3]
    1242:	681b      	ldr	r3, [r3, #0]
    1244:	9301      	str	r3, [sp, #4]
    1246:	f04f 0300 	mov.w	r3, #0
/home/ldx1/dev/tee-fusion-repo/build/optee_os_ep-prefix/src/optee_os_ep/lib/libutee/tee_api_objects.c:238
    124a:	2300      	movs	r3, #0
    124c:	9300      	str	r3, [sp, #0]
/home/ldx1/dev/tee-fusion-repo/build/optee_os_ep-prefix/src/optee_os_ep/lib/libutee/tee_api_objects.c:240
    124e:	f003 fd44 	bl	4cda <__utee_check_inout_annotation>
/home/ldx1/dev/tee-fusion-repo/build/optee_os_ep-prefix/src/optee_os_ep/lib/libutee/tee_api_objects.c:241
    1252:	6823      	ldr	r3, [r4, #0]
/home/ldx1/dev/tee-fusion-repo/build/optee_os_ep-prefix/src/optee_os_ep/lib/libutee/tee_api_objects.c:242
    1254:	462a      	mov	r2, r5
/home/ldx1/dev/tee-fusion-repo/build/optee_os_ep-prefix/src/optee_os_ep/lib/libutee/tee_api_objects.c:241
    1256:	9300      	str	r3, [sp, #0]
/home/ldx1/dev/tee-fusion-repo/build/optee_os_ep-prefix/src/optee_os_ep/lib/libutee/tee_api_objects.c:242
    1258:	4639      	mov	r1, r7
    125a:	466b      	mov	r3, sp
    125c:	4630      	mov	r0, r6
    125e:	f7ff ff85 	bl	116c <TEE_GetObjectBufferAttribute>
/home/ldx1/dev/tee-fusion-repo/build/optee_os_ep-prefix/src/optee_os_ep/lib/libutee/tee_api_objects.c:243
    1262:	9b00      	ldr	r3, [sp, #0]
/home/ldx1/dev/tee-fusion-repo/build/optee_os_ep-prefix/src/optee_os_ep/lib/libutee/tee_api_objects.c:236
    1264:	4a09      	ldr	r2, [pc, #36]	@ (128c <__GP11_TEE_GetObjectBufferAttribute+0x60>)
/home/ldx1/dev/tee-fusion-repo/build/optee_os_ep-prefix/src/optee_os_ep/lib/libutee/tee_api_objects.c:243
    1266:	6023      	str	r3, [r4, #0]
/home/ldx1/dev/tee-fusion-repo/build/optee_os_ep-prefix/src/optee_os_ep/lib/libutee/tee_api_objects.c:245
    1268:	4b07      	ldr	r3, [pc, #28]	@ (1288 <__GP11_TEE_GetObjectBufferAttribute+0x5c>)
/home/ldx1/dev/tee-fusion-repo/build/optee_os_ep-prefix/src/optee_os_ep/lib/libutee/tee_api_objects.c:236
    126a:	447a      	add	r2, pc
/home/ldx1/dev/tee-fusion-repo/build/optee_os_ep-prefix/src/optee_os_ep/lib/libutee/tee_api_objects.c:245
    126c:	58d3      	ldr	r3, [r2, r3]
    126e:	681a      	ldr	r2, [r3, #0]
    1270:	9b01      	ldr	r3, [sp, #4]
    1272:	405a      	eors	r2, r3
    1274:	f04f 0300 	mov.w	r3, #0
    1278:	d001      	beq.n	127e <__GP11_TEE_GetObjectBufferAttribute+0x52>
    127a:	f7ff f829 	bl	2d0 <__stack_chk_fail>
    127e:	b003      	add	sp, #12
    1280:	bdf0      	pop	{r4, r5, r6, r7, pc}
    1282:	bf00      	nop
    1284:	0000de4e 	.word	0x0000de4e
    1288:	0000000c 	.word	0x0000000c
    128c:	0000de1a 	.word	0x0000de1a

00001290 <TEE_GetObjectValueAttribute>:
TEE_GetObjectValueAttribute():
/home/ldx1/dev/tee-fusion-repo/build/optee_os_ep-prefix/src/optee_os_ep/lib/libutee/tee_api_objects.c:250
    1290:	e92d 41f0 	stmdb	sp!, {r4, r5, r6, r7, r8, lr}
    1294:	4616      	mov	r6, r2
    1296:	4a32      	ldr	r2, [pc, #200]	@ (1360 <TEE_GetObjectValueAttribute+0xd0>)
    1298:	461d      	mov	r5, r3
    129a:	4b32      	ldr	r3, [pc, #200]	@ (1364 <TEE_GetObjectValueAttribute+0xd4>)
    129c:	447a      	add	r2, pc
    129e:	b08c      	sub	sp, #48	@ 0x30
/home/ldx1/dev/tee-fusion-repo/build/optee_os_ep-prefix/src/optee_os_ep/lib/libutee/tee_api_objects.c:251
    12a0:	ac02      	add	r4, sp, #8
/home/ldx1/dev/tee-fusion-repo/build/optee_os_ep-prefix/src/optee_os_ep/lib/libutee/tee_api_objects.c:250
    12a2:	4607      	mov	r7, r0
    12a4:	4688      	mov	r8, r1
/home/ldx1/dev/tee-fusion-repo/build/optee_os_ep-prefix/src/optee_os_ep/lib/libutee/tee_api_objects.c:251
    12a6:	4620      	mov	r0, r4
/home/ldx1/dev/tee-fusion-repo/build/optee_os_ep-prefix/src/optee_os_ep/lib/libutee/tee_api_objects.c:250
    12a8:	58d3      	ldr	r3, [r2, r3]
/home/ldx1/dev/tee-fusion-repo/build/optee_os_ep-prefix/src/optee_os_ep/lib/libutee/tee_api_objects.c:251
    12aa:	2100      	movs	r1, #0
    12ac:	221c      	movs	r2, #28
/home/ldx1/dev/tee-fusion-repo/build/optee_os_ep-prefix/src/optee_os_ep/lib/libutee/tee_api_objects.c:250
    12ae:	681b      	ldr	r3, [r3, #0]
    12b0:	930b      	str	r3, [sp, #44]	@ 0x2c
    12b2:	f04f 0300 	mov.w	r3, #0
/home/ldx1/dev/tee-fusion-repo/build/optee_os_ep-prefix/src/optee_os_ep/lib/libutee/tee_api_objects.c:251
    12b6:	f00b f9be 	bl	c636 <memset>
/home/ldx1/dev/tee-fusion-repo/build/optee_os_ep-prefix/src/optee_os_ep/lib/libutee/tee_api_objects.c:254
    12ba:	2208      	movs	r2, #8
    12bc:	2300      	movs	r3, #0
    12be:	e9cd 2300 	strd	r2, r3, [sp]
/home/ldx1/dev/tee-fusion-repo/build/optee_os_ep-prefix/src/optee_os_ep/lib/libutee/tee_api_objects.c:256
    12c2:	b11e      	cbz	r6, 12cc <TEE_GetObjectValueAttribute+0x3c>
/home/ldx1/dev/tee-fusion-repo/build/optee_os_ep-prefix/src/optee_os_ep/lib/libutee/tee_api_objects.c:257
    12c4:	2104      	movs	r1, #4
    12c6:	4630      	mov	r0, r6
    12c8:	f003 fcef 	bl	4caa <__utee_check_out_annotation>
/home/ldx1/dev/tee-fusion-repo/build/optee_os_ep-prefix/src/optee_os_ep/lib/libutee/tee_api_objects.c:258
    12cc:	b11d      	cbz	r5, 12d6 <TEE_GetObjectValueAttribute+0x46>
/home/ldx1/dev/tee-fusion-repo/build/optee_os_ep-prefix/src/optee_os_ep/lib/libutee/tee_api_objects.c:259
    12ce:	2104      	movs	r1, #4
    12d0:	4628      	mov	r0, r5
    12d2:	f003 fcea 	bl	4caa <__utee_check_out_annotation>
/home/ldx1/dev/tee-fusion-repo/build/optee_os_ep-prefix/src/optee_os_ep/lib/libutee/tee_api_objects.c:261
    12d6:	4621      	mov	r1, r4
    12d8:	4638      	mov	r0, r7
    12da:	f004 e994 	blx	5604 <_utee_cryp_obj_get_info>
/home/ldx1/dev/tee-fusion-repo/build/optee_os_ep-prefix/src/optee_os_ep/lib/libutee/tee_api_objects.c:262
    12de:	4604      	mov	r4, r0
    12e0:	b950      	cbnz	r0, 12f8 <TEE_GetObjectValueAttribute+0x68>
/home/ldx1/dev/tee-fusion-repo/build/optee_os_ep-prefix/src/optee_os_ep/lib/libutee/tee_api_objects.c:266
    12e2:	f018 5f00 	tst.w	r8, #536870912	@ 0x20000000
    12e6:	d02e      	beq.n	1346 <TEE_GetObjectValueAttribute+0xb6>
/home/ldx1/dev/tee-fusion-repo/build/optee_os_ep-prefix/src/optee_os_ep/lib/libutee/tee_api_objects.c:271
    12e8:	466b      	mov	r3, sp
    12ea:	aa09      	add	r2, sp, #36	@ 0x24
    12ec:	4641      	mov	r1, r8
    12ee:	4638      	mov	r0, r7
    12f0:	f004 e99c 	blx	562c <_utee_cryp_obj_get_attr>
/home/ldx1/dev/tee-fusion-repo/build/optee_os_ep-prefix/src/optee_os_ep/lib/libutee/tee_api_objects.c:275
    12f4:	4604      	mov	r4, r0
    12f6:	b158      	cbz	r0, 1310 <TEE_GetObjectValueAttribute+0x80>
/home/ldx1/dev/tee-fusion-repo/build/optee_os_ep-prefix/src/optee_os_ep/lib/libutee/tee_api_objects.c:275 (discriminator 1)
    12f8:	4b16      	ldr	r3, [pc, #88]	@ (1354 <TEE_GetObjectValueAttribute+0xc4>)
    12fa:	429c      	cmp	r4, r3
    12fc:	d008      	beq.n	1310 <TEE_GetObjectValueAttribute+0x80>
/home/ldx1/dev/tee-fusion-repo/build/optee_os_ep-prefix/src/optee_os_ep/lib/libutee/tee_api_objects.c:276
    12fe:	4b16      	ldr	r3, [pc, #88]	@ (1358 <TEE_GetObjectValueAttribute+0xc8>)
    1300:	429c      	cmp	r4, r3
    1302:	d005      	beq.n	1310 <TEE_GetObjectValueAttribute+0x80>
/home/ldx1/dev/tee-fusion-repo/build/optee_os_ep-prefix/src/optee_os_ep/lib/libutee/tee_api_objects.c:277
    1304:	3302      	adds	r3, #2
    1306:	429c      	cmp	r4, r3
    1308:	d002      	beq.n	1310 <TEE_GetObjectValueAttribute+0x80>
/home/ldx1/dev/tee-fusion-repo/build/optee_os_ep-prefix/src/optee_os_ep/lib/libutee/tee_api_objects.c:279
    130a:	4620      	mov	r0, r4
    130c:	f003 fca0 	bl	4c50 <TEE_Panic>
/home/ldx1/dev/tee-fusion-repo/build/optee_os_ep-prefix/src/optee_os_ep/lib/libutee/tee_api_objects.c:281
    1310:	9b00      	ldr	r3, [sp, #0]
    1312:	9a01      	ldr	r2, [sp, #4]
    1314:	3b08      	subs	r3, #8
    1316:	4313      	orrs	r3, r2
    1318:	d002      	beq.n	1320 <TEE_GetObjectValueAttribute+0x90>
/home/ldx1/dev/tee-fusion-repo/build/optee_os_ep-prefix/src/optee_os_ep/lib/libutee/tee_api_objects.c:282
    131a:	2000      	movs	r0, #0
    131c:	f003 fc98 	bl	4c50 <TEE_Panic>
/home/ldx1/dev/tee-fusion-repo/build/optee_os_ep-prefix/src/optee_os_ep/lib/libutee/tee_api_objects.c:284
    1320:	b92c      	cbnz	r4, 132e <TEE_GetObjectValueAttribute+0x9e>
/home/ldx1/dev/tee-fusion-repo/build/optee_os_ep-prefix/src/optee_os_ep/lib/libutee/tee_api_objects.c:285
    1322:	b10e      	cbz	r6, 1328 <TEE_GetObjectValueAttribute+0x98>
/home/ldx1/dev/tee-fusion-repo/build/optee_os_ep-prefix/src/optee_os_ep/lib/libutee/tee_api_objects.c:286
    1324:	9b09      	ldr	r3, [sp, #36]	@ 0x24
    1326:	6033      	str	r3, [r6, #0]
/home/ldx1/dev/tee-fusion-repo/build/optee_os_ep-prefix/src/optee_os_ep/lib/libutee/tee_api_objects.c:287
    1328:	b10d      	cbz	r5, 132e <TEE_GetObjectValueAttribute+0x9e>
/home/ldx1/dev/tee-fusion-repo/build/optee_os_ep-prefix/src/optee_os_ep/lib/libutee/tee_api_objects.c:288
    132a:	9b0a      	ldr	r3, [sp, #40]	@ 0x28
    132c:	602b      	str	r3, [r5, #0]
/home/ldx1/dev/tee-fusion-repo/build/optee_os_ep-prefix/src/optee_os_ep/lib/libutee/tee_api_objects.c:250
    132e:	4a0e      	ldr	r2, [pc, #56]	@ (1368 <TEE_GetObjectValueAttribute+0xd8>)
/home/ldx1/dev/tee-fusion-repo/build/optee_os_ep-prefix/src/optee_os_ep/lib/libutee/tee_api_objects.c:292
    1330:	4b0c      	ldr	r3, [pc, #48]	@ (1364 <TEE_GetObjectValueAttribute+0xd4>)
/home/ldx1/dev/tee-fusion-repo/build/optee_os_ep-prefix/src/optee_os_ep/lib/libutee/tee_api_objects.c:250
    1332:	447a      	add	r2, pc
/home/ldx1/dev/tee-fusion-repo/build/optee_os_ep-prefix/src/optee_os_ep/lib/libutee/tee_api_objects.c:292
    1334:	58d3      	ldr	r3, [r2, r3]
    1336:	681a      	ldr	r2, [r3, #0]
    1338:	9b0b      	ldr	r3, [sp, #44]	@ 0x2c
    133a:	405a      	eors	r2, r3
    133c:	f04f 0300 	mov.w	r3, #0
    1340:	d003      	beq.n	134a <TEE_GetObjectValueAttribute+0xba>
    1342:	f7fe ffc5 	bl	2d0 <__stack_chk_fail>
/home/ldx1/dev/tee-fusion-repo/build/optee_os_ep-prefix/src/optee_os_ep/lib/libutee/tee_api_objects.c:267
    1346:	4c05      	ldr	r4, [pc, #20]	@ (135c <TEE_GetObjectValueAttribute+0xcc>)
    1348:	e7df      	b.n	130a <TEE_GetObjectValueAttribute+0x7a>
/home/ldx1/dev/tee-fusion-repo/build/optee_os_ep-prefix/src/optee_os_ep/lib/libutee/tee_api_objects.c:292
    134a:	4620      	mov	r0, r4
    134c:	b00c      	add	sp, #48	@ 0x30
    134e:	e8bd 81f0 	ldmia.w	sp!, {r4, r5, r6, r7, r8, pc}
    1352:	bf00      	nop
    1354:	ffff0008 	.word	0xffff0008
    1358:	f0100001 	.word	0xf0100001
    135c:	ffff0006 	.word	0xffff0006
    1360:	0000dde8 	.word	0x0000dde8
    1364:	0000000c 	.word	0x0000000c
    1368:	0000dd52 	.word	0x0000dd52

0000136c <TEE_CloseObject>:
TEE_CloseObject():
/home/ldx1/dev/tee-fusion-repo/build/optee_os_ep-prefix/src/optee_os_ep/lib/libutee/tee_api_objects.c:295
    136c:	b508      	push	{r3, lr}
/home/ldx1/dev/tee-fusion-repo/build/optee_os_ep-prefix/src/optee_os_ep/lib/libutee/tee_api_objects.c:298
    136e:	b130      	cbz	r0, 137e <TEE_CloseObject+0x12>
/home/ldx1/dev/tee-fusion-repo/build/optee_os_ep-prefix/src/optee_os_ep/lib/libutee/tee_api_objects.c:301
    1370:	f004 e970 	blx	5654 <_utee_cryp_obj_close>
/home/ldx1/dev/tee-fusion-repo/build/optee_os_ep-prefix/src/optee_os_ep/lib/libutee/tee_api_objects.c:302
    1374:	b118      	cbz	r0, 137e <TEE_CloseObject+0x12>
/home/ldx1/dev/tee-fusion-repo/build/optee_os_ep-prefix/src/optee_os_ep/lib/libutee/tee_api_objects.c:304
    1376:	e8bd 4008 	ldmia.w	sp!, {r3, lr}
/home/ldx1/dev/tee-fusion-repo/build/optee_os_ep-prefix/src/optee_os_ep/lib/libutee/tee_api_objects.c:303
    137a:	f003 bc69 	b.w	4c50 <TEE_Panic>
/home/ldx1/dev/tee-fusion-repo/build/optee_os_ep-prefix/src/optee_os_ep/lib/libutee/tee_api_objects.c:304
    137e:	bd08      	pop	{r3, pc}

00001380 <__GP11_TEE_AllocateTransientObject>:
__GP11_TEE_AllocateTransientObject():
/home/ldx1/dev/tee-fusion-repo/build/optee_os_ep-prefix/src/optee_os_ep/lib/libutee/tee_api_objects.c:322
    1380:	b573      	push	{r0, r1, r4, r5, r6, lr}
    1382:	4615      	mov	r5, r2
    1384:	4a18      	ldr	r2, [pc, #96]	@ (13e8 <__GP11_TEE_AllocateTransientObject+0x68>)
    1386:	4b19      	ldr	r3, [pc, #100]	@ (13ec <__GP11_TEE_AllocateTransientObject+0x6c>)
    1388:	4604      	mov	r4, r0
    138a:	447a      	add	r2, pc
    138c:	460e      	mov	r6, r1
/home/ldx1/dev/tee-fusion-repo/build/optee_os_ep-prefix/src/optee_os_ep/lib/libutee/tee_api_objects.c:326
    138e:	4628      	mov	r0, r5
    1390:	2104      	movs	r1, #4
/home/ldx1/dev/tee-fusion-repo/build/optee_os_ep-prefix/src/optee_os_ep/lib/libutee/tee_api_objects.c:322
    1392:	58d3      	ldr	r3, [r2, r3]
    1394:	681b      	ldr	r3, [r3, #0]
    1396:	9301      	str	r3, [sp, #4]
    1398:	f04f 0300 	mov.w	r3, #0
/home/ldx1/dev/tee-fusion-repo/build/optee_os_ep-prefix/src/optee_os_ep/lib/libutee/tee_api_objects.c:326
    139c:	f003 fc85 	bl	4caa <__utee_check_out_annotation>
/home/ldx1/dev/tee-fusion-repo/build/optee_os_ep-prefix/src/optee_os_ep/lib/libutee/tee_api_objects.c:328
    13a0:	4620      	mov	r0, r4
    13a2:	466a      	mov	r2, sp
    13a4:	4631      	mov	r1, r6
    13a6:	f004 e94c 	blx	5640 <_utee_cryp_obj_alloc>
/home/ldx1/dev/tee-fusion-repo/build/optee_os_ep-prefix/src/optee_os_ep/lib/libutee/tee_api_objects.c:330
    13aa:	4604      	mov	r4, r0
    13ac:	b968      	cbnz	r0, 13ca <__GP11_TEE_AllocateTransientObject+0x4a>
/home/ldx1/dev/tee-fusion-repo/build/optee_os_ep-prefix/src/optee_os_ep/lib/libutee/tee_api_objects.c:336
    13ae:	9b00      	ldr	r3, [sp, #0]
    13b0:	602b      	str	r3, [r5, #0]
/home/ldx1/dev/tee-fusion-repo/build/optee_os_ep-prefix/src/optee_os_ep/lib/libutee/tee_api_objects.c:322
    13b2:	4a0f      	ldr	r2, [pc, #60]	@ (13f0 <__GP11_TEE_AllocateTransientObject+0x70>)
/home/ldx1/dev/tee-fusion-repo/build/optee_os_ep-prefix/src/optee_os_ep/lib/libutee/tee_api_objects.c:339
    13b4:	4b0d      	ldr	r3, [pc, #52]	@ (13ec <__GP11_TEE_AllocateTransientObject+0x6c>)
/home/ldx1/dev/tee-fusion-repo/build/optee_os_ep-prefix/src/optee_os_ep/lib/libutee/tee_api_objects.c:322
    13b6:	447a      	add	r2, pc
/home/ldx1/dev/tee-fusion-repo/build/optee_os_ep-prefix/src/optee_os_ep/lib/libutee/tee_api_objects.c:339
    13b8:	58d3      	ldr	r3, [r2, r3]
    13ba:	681a      	ldr	r2, [r3, #0]
    13bc:	9b01      	ldr	r3, [sp, #4]
    13be:	405a      	eors	r2, r3
    13c0:	f04f 0300 	mov.w	r3, #0
    13c4:	d00a      	beq.n	13dc <__GP11_TEE_AllocateTransientObject+0x5c>
    13c6:	f7fe ff83 	bl	2d0 <__stack_chk_fail>
/home/ldx1/dev/tee-fusion-repo/build/optee_os_ep-prefix/src/optee_os_ep/lib/libutee/tee_api_objects.c:330 (discriminator 1)
    13ca:	4b06      	ldr	r3, [pc, #24]	@ (13e4 <__GP11_TEE_AllocateTransientObject+0x64>)
    13cc:	4298      	cmp	r0, r3
    13ce:	d0f0      	beq.n	13b2 <__GP11_TEE_AllocateTransientObject+0x32>
/home/ldx1/dev/tee-fusion-repo/build/optee_os_ep-prefix/src/optee_os_ep/lib/libutee/tee_api_objects.c:331
    13d0:	3b02      	subs	r3, #2
    13d2:	4298      	cmp	r0, r3
    13d4:	d0ed      	beq.n	13b2 <__GP11_TEE_AllocateTransientObject+0x32>
/home/ldx1/dev/tee-fusion-repo/build/optee_os_ep-prefix/src/optee_os_ep/lib/libutee/tee_api_objects.c:333
    13d6:	f003 fc3b 	bl	4c50 <TEE_Panic>
/home/ldx1/dev/tee-fusion-repo/build/optee_os_ep-prefix/src/optee_os_ep/lib/libutee/tee_api_objects.c:338
    13da:	e7ea      	b.n	13b2 <__GP11_TEE_AllocateTransientObject+0x32>
/home/ldx1/dev/tee-fusion-repo/build/optee_os_ep-prefix/src/optee_os_ep/lib/libutee/tee_api_objects.c:339
    13dc:	4620      	mov	r0, r4
    13de:	b002      	add	sp, #8
    13e0:	bd70      	pop	{r4, r5, r6, pc}
    13e2:	bf00      	nop
    13e4:	ffff000c 	.word	0xffff000c
    13e8:	0000dcfa 	.word	0x0000dcfa
    13ec:	0000000c 	.word	0x0000000c
    13f0:	0000dcce 	.word	0x0000dcce

000013f4 <TEE_AllocateTransientObject>:
TEE_AllocateTransientObject():
/home/ldx1/dev/tee-fusion-repo/build/optee_os_ep-prefix/src/optee_os_ep/lib/libutee/tee_api_objects.c:312
    13f4:	4b03      	ldr	r3, [pc, #12]	@ (1404 <TEE_AllocateTransientObject+0x10>)
    13f6:	4298      	cmp	r0, r3
    13f8:	d001      	beq.n	13fe <TEE_AllocateTransientObject+0xa>
/home/ldx1/dev/tee-fusion-repo/build/optee_os_ep-prefix/src/optee_os_ep/lib/libutee/tee_api_objects.c:315
    13fa:	f7ff bfc1 	b.w	1380 <__GP11_TEE_AllocateTransientObject>
/home/ldx1/dev/tee-fusion-repo/build/optee_os_ep-prefix/src/optee_os_ep/lib/libutee/tee_api_objects.c:317
    13fe:	4802      	ldr	r0, [pc, #8]	@ (1408 <TEE_AllocateTransientObject+0x14>)
    1400:	4770      	bx	lr
    1402:	bf00      	nop
    1404:	a00000bf 	.word	0xa00000bf
    1408:	ffff000a 	.word	0xffff000a

0000140c <TEE_FreeTransientObject>:
TEE_FreeTransientObject():
/home/ldx1/dev/tee-fusion-repo/build/optee_os_ep-prefix/src/optee_os_ep/lib/libutee/tee_api_objects.c:342
    140c:	4a19      	ldr	r2, [pc, #100]	@ (1474 <TEE_FreeTransientObject+0x68>)
/home/ldx1/dev/tee-fusion-repo/build/optee_os_ep-prefix/src/optee_os_ep/lib/libutee/tee_api_objects.c:343
    140e:	2100      	movs	r1, #0
/home/ldx1/dev/tee-fusion-repo/build/optee_os_ep-prefix/src/optee_os_ep/lib/libutee/tee_api_objects.c:342
    1410:	4b19      	ldr	r3, [pc, #100]	@ (1478 <TEE_FreeTransientObject+0x6c>)
    1412:	447a      	add	r2, pc
    1414:	b510      	push	{r4, lr}
    1416:	4604      	mov	r4, r0
    1418:	b088      	sub	sp, #32
    141a:	58d3      	ldr	r3, [r2, r3]
/home/ldx1/dev/tee-fusion-repo/build/optee_os_ep-prefix/src/optee_os_ep/lib/libutee/tee_api_objects.c:343
    141c:	221c      	movs	r2, #28
/home/ldx1/dev/tee-fusion-repo/build/optee_os_ep-prefix/src/optee_os_ep/lib/libutee/tee_api_objects.c:342
    141e:	681b      	ldr	r3, [r3, #0]
    1420:	9307      	str	r3, [sp, #28]
    1422:	f04f 0300 	mov.w	r3, #0
/home/ldx1/dev/tee-fusion-repo/build/optee_os_ep-prefix/src/optee_os_ep/lib/libutee/tee_api_objects.c:343
    1426:	466b      	mov	r3, sp
    1428:	4618      	mov	r0, r3
    142a:	f00b f904 	bl	c636 <memset>
/home/ldx1/dev/tee-fusion-repo/build/optee_os_ep-prefix/src/optee_os_ep/lib/libutee/tee_api_objects.c:346
    142e:	b194      	cbz	r4, 1456 <TEE_FreeTransientObject+0x4a>
/home/ldx1/dev/tee-fusion-repo/build/optee_os_ep-prefix/src/optee_os_ep/lib/libutee/tee_api_objects.c:349
    1430:	4601      	mov	r1, r0
    1432:	4620      	mov	r0, r4
    1434:	f004 e8e6 	blx	5604 <_utee_cryp_obj_get_info>
/home/ldx1/dev/tee-fusion-repo/build/optee_os_ep-prefix/src/optee_os_ep/lib/libutee/tee_api_objects.c:350
    1438:	b108      	cbz	r0, 143e <TEE_FreeTransientObject+0x32>
/home/ldx1/dev/tee-fusion-repo/build/optee_os_ep-prefix/src/optee_os_ep/lib/libutee/tee_api_objects.c:351
    143a:	f003 fc09 	bl	4c50 <TEE_Panic>
/home/ldx1/dev/tee-fusion-repo/build/optee_os_ep-prefix/src/optee_os_ep/lib/libutee/tee_api_objects.c:353
    143e:	9b06      	ldr	r3, [sp, #24]
    1440:	03db      	lsls	r3, r3, #15
    1442:	d502      	bpl.n	144a <TEE_FreeTransientObject+0x3e>
/home/ldx1/dev/tee-fusion-repo/build/optee_os_ep-prefix/src/optee_os_ep/lib/libutee/tee_api_objects.c:354
    1444:	2000      	movs	r0, #0
    1446:	f003 fc03 	bl	4c50 <TEE_Panic>
/home/ldx1/dev/tee-fusion-repo/build/optee_os_ep-prefix/src/optee_os_ep/lib/libutee/tee_api_objects.c:356
    144a:	4620      	mov	r0, r4
    144c:	f004 e902 	blx	5654 <_utee_cryp_obj_close>
/home/ldx1/dev/tee-fusion-repo/build/optee_os_ep-prefix/src/optee_os_ep/lib/libutee/tee_api_objects.c:357
    1450:	b108      	cbz	r0, 1456 <TEE_FreeTransientObject+0x4a>
/home/ldx1/dev/tee-fusion-repo/build/optee_os_ep-prefix/src/optee_os_ep/lib/libutee/tee_api_objects.c:358
    1452:	f003 fbfd 	bl	4c50 <TEE_Panic>
/home/ldx1/dev/tee-fusion-repo/build/optee_os_ep-prefix/src/optee_os_ep/lib/libutee/tee_api_objects.c:342
    1456:	4a09      	ldr	r2, [pc, #36]	@ (147c <TEE_FreeTransientObject+0x70>)
/home/ldx1/dev/tee-fusion-repo/build/optee_os_ep-prefix/src/optee_os_ep/lib/libutee/tee_api_objects.c:359
    1458:	4b07      	ldr	r3, [pc, #28]	@ (1478 <TEE_FreeTransientObject+0x6c>)
/home/ldx1/dev/tee-fusion-repo/build/optee_os_ep-prefix/src/optee_os_ep/lib/libutee/tee_api_objects.c:342
    145a:	447a      	add	r2, pc
/home/ldx1/dev/tee-fusion-repo/build/optee_os_ep-prefix/src/optee_os_ep/lib/libutee/tee_api_objects.c:359
    145c:	58d3      	ldr	r3, [r2, r3]
    145e:	681a      	ldr	r2, [r3, #0]
    1460:	9b07      	ldr	r3, [sp, #28]
    1462:	405a      	eors	r2, r3
    1464:	f04f 0300 	mov.w	r3, #0
    1468:	d001      	beq.n	146e <TEE_FreeTransientObject+0x62>
    146a:	f7fe ff31 	bl	2d0 <__stack_chk_fail>
    146e:	b008      	add	sp, #32
    1470:	bd10      	pop	{r4, pc}
    1472:	bf00      	nop
    1474:	0000dc72 	.word	0x0000dc72
    1478:	0000000c 	.word	0x0000000c
    147c:	0000dc2a 	.word	0x0000dc2a

00001480 <TEE_ResetTransientObject>:
TEE_ResetTransientObject():
/home/ldx1/dev/tee-fusion-repo/build/optee_os_ep-prefix/src/optee_os_ep/lib/libutee/tee_api_objects.c:362
    1480:	4a19      	ldr	r2, [pc, #100]	@ (14e8 <TEE_ResetTransientObject+0x68>)
/home/ldx1/dev/tee-fusion-repo/build/optee_os_ep-prefix/src/optee_os_ep/lib/libutee/tee_api_objects.c:363
    1482:	2100      	movs	r1, #0
/home/ldx1/dev/tee-fusion-repo/build/optee_os_ep-prefix/src/optee_os_ep/lib/libutee/tee_api_objects.c:362
    1484:	4b19      	ldr	r3, [pc, #100]	@ (14ec <TEE_ResetTransientObject+0x6c>)
    1486:	447a      	add	r2, pc
    1488:	b510      	push	{r4, lr}
    148a:	4604      	mov	r4, r0
    148c:	b088      	sub	sp, #32
    148e:	58d3      	ldr	r3, [r2, r3]
/home/ldx1/dev/tee-fusion-repo/build/optee_os_ep-prefix/src/optee_os_ep/lib/libutee/tee_api_objects.c:363
    1490:	221c      	movs	r2, #28
/home/ldx1/dev/tee-fusion-repo/build/optee_os_ep-prefix/src/optee_os_ep/lib/libutee/tee_api_objects.c:362
    1492:	681b      	ldr	r3, [r3, #0]
    1494:	9307      	str	r3, [sp, #28]
    1496:	f04f 0300 	mov.w	r3, #0
/home/ldx1/dev/tee-fusion-repo/build/optee_os_ep-prefix/src/optee_os_ep/lib/libutee/tee_api_objects.c:363
    149a:	466b      	mov	r3, sp
    149c:	4618      	mov	r0, r3
    149e:	f00b f8ca 	bl	c636 <memset>
/home/ldx1/dev/tee-fusion-repo/build/optee_os_ep-prefix/src/optee_os_ep/lib/libutee/tee_api_objects.c:366
    14a2:	b194      	cbz	r4, 14ca <TEE_ResetTransientObject+0x4a>
/home/ldx1/dev/tee-fusion-repo/build/optee_os_ep-prefix/src/optee_os_ep/lib/libutee/tee_api_objects.c:369
    14a4:	4601      	mov	r1, r0
    14a6:	4620      	mov	r0, r4
    14a8:	f004 e8ac 	blx	5604 <_utee_cryp_obj_get_info>
/home/ldx1/dev/tee-fusion-repo/build/optee_os_ep-prefix/src/optee_os_ep/lib/libutee/tee_api_objects.c:370
    14ac:	b108      	cbz	r0, 14b2 <TEE_ResetTransientObject+0x32>
/home/ldx1/dev/tee-fusion-repo/build/optee_os_ep-prefix/src/optee_os_ep/lib/libutee/tee_api_objects.c:371
    14ae:	f003 fbcf 	bl	4c50 <TEE_Panic>
/home/ldx1/dev/tee-fusion-repo/build/optee_os_ep-prefix/src/optee_os_ep/lib/libutee/tee_api_objects.c:373
    14b2:	9b06      	ldr	r3, [sp, #24]
    14b4:	03db      	lsls	r3, r3, #15
    14b6:	d502      	bpl.n	14be <TEE_ResetTransientObject+0x3e>
/home/ldx1/dev/tee-fusion-repo/build/optee_os_ep-prefix/src/optee_os_ep/lib/libutee/tee_api_objects.c:374
    14b8:	2000      	movs	r0, #0
    14ba:	f003 fbc9 	bl	4c50 <TEE_Panic>
/home/ldx1/dev/tee-fusion-repo/build/optee_os_ep-prefix/src/optee_os_ep/lib/libutee/tee_api_objects.c:376
    14be:	4620      	mov	r0, r4
    14c0:	f004 e8d2 	blx	5668 <_utee_cryp_obj_reset>
/home/ldx1/dev/tee-fusion-repo/build/optee_os_ep-prefix/src/optee_os_ep/lib/libutee/tee_api_objects.c:377
    14c4:	b108      	cbz	r0, 14ca <TEE_ResetTransientObject+0x4a>
/home/ldx1/dev/tee-fusion-repo/build/optee_os_ep-prefix/src/optee_os_ep/lib/libutee/tee_api_objects.c:378
    14c6:	f003 fbc3 	bl	4c50 <TEE_Panic>
/home/ldx1/dev/tee-fusion-repo/build/optee_os_ep-prefix/src/optee_os_ep/lib/libutee/tee_api_objects.c:362
    14ca:	4a09      	ldr	r2, [pc, #36]	@ (14f0 <TEE_ResetTransientObject+0x70>)
/home/ldx1/dev/tee-fusion-repo/build/optee_os_ep-prefix/src/optee_os_ep/lib/libutee/tee_api_objects.c:379
    14cc:	4b07      	ldr	r3, [pc, #28]	@ (14ec <TEE_ResetTransientObject+0x6c>)
/home/ldx1/dev/tee-fusion-repo/build/optee_os_ep-prefix/src/optee_os_ep/lib/libutee/tee_api_objects.c:362
    14ce:	447a      	add	r2, pc
/home/ldx1/dev/tee-fusion-repo/build/optee_os_ep-prefix/src/optee_os_ep/lib/libutee/tee_api_objects.c:379
    14d0:	58d3      	ldr	r3, [r2, r3]
    14d2:	681a      	ldr	r2, [r3, #0]
    14d4:	9b07      	ldr	r3, [sp, #28]
    14d6:	405a      	eors	r2, r3
    14d8:	f04f 0300 	mov.w	r3, #0
    14dc:	d001      	beq.n	14e2 <TEE_ResetTransientObject+0x62>
    14de:	f7fe fef7 	bl	2d0 <__stack_chk_fail>
    14e2:	b008      	add	sp, #32
    14e4:	bd10      	pop	{r4, pc}
    14e6:	bf00      	nop
    14e8:	0000dbfe 	.word	0x0000dbfe
    14ec:	0000000c 	.word	0x0000000c
    14f0:	0000dbb6 	.word	0x0000dbb6

000014f4 <TEE_PopulateTransientObject>:
TEE_PopulateTransientObject():
/home/ldx1/dev/tee-fusion-repo/build/optee_os_ep-prefix/src/optee_os_ep/lib/libutee/tee_api_objects.c:384
    14f4:	e92d 43f0 	stmdb	sp!, {r4, r5, r6, r7, r8, r9, lr}
    14f8:	4614      	mov	r4, r2
    14fa:	4a29      	ldr	r2, [pc, #164]	@ (15a0 <TEE_PopulateTransientObject+0xac>)
    14fc:	4b29      	ldr	r3, [pc, #164]	@ (15a4 <TEE_PopulateTransientObject+0xb0>)
    14fe:	b089      	sub	sp, #36	@ 0x24
    1500:	447a      	add	r2, pc
    1502:	af00      	add	r7, sp, #0
    1504:	4605      	mov	r5, r0
    1506:	460e      	mov	r6, r1
/home/ldx1/dev/tee-fusion-repo/build/optee_os_ep-prefix/src/optee_os_ep/lib/libutee/tee_api_objects.c:386
    1508:	4638      	mov	r0, r7
/home/ldx1/dev/tee-fusion-repo/build/optee_os_ep-prefix/src/optee_os_ep/lib/libutee/tee_api_objects.c:384
    150a:	58d3      	ldr	r3, [r2, r3]
/home/ldx1/dev/tee-fusion-repo/build/optee_os_ep-prefix/src/optee_os_ep/lib/libutee/tee_api_objects.c:385
    150c:	466a      	mov	r2, sp
/home/ldx1/dev/tee-fusion-repo/build/optee_os_ep-prefix/src/optee_os_ep/lib/libutee/tee_api_objects.c:386
    150e:	2100      	movs	r1, #0
/home/ldx1/dev/tee-fusion-repo/build/optee_os_ep-prefix/src/optee_os_ep/lib/libutee/tee_api_objects.c:384
    1510:	681b      	ldr	r3, [r3, #0]
    1512:	61fb      	str	r3, [r7, #28]
    1514:	f04f 0300 	mov.w	r3, #0
/home/ldx1/dev/tee-fusion-repo/build/optee_os_ep-prefix/src/optee_os_ep/lib/libutee/tee_api_objects.c:385
    1518:	2318      	movs	r3, #24
    151a:	fb03 2314 	mls	r3, r3, r4, r2
/home/ldx1/dev/tee-fusion-repo/build/optee_os_ep-prefix/src/optee_os_ep/lib/libutee/tee_api_objects.c:386
    151e:	221c      	movs	r2, #28
/home/ldx1/dev/tee-fusion-repo/build/optee_os_ep-prefix/src/optee_os_ep/lib/libutee/tee_api_objects.c:385
    1520:	469d      	mov	sp, r3
/home/ldx1/dev/tee-fusion-repo/build/optee_os_ep-prefix/src/optee_os_ep/lib/libutee/tee_api_objects.c:386
    1522:	f00b f888 	bl	c636 <memset>
/home/ldx1/dev/tee-fusion-repo/build/optee_os_ep-prefix/src/optee_os_ep/lib/libutee/tee_api_objects.c:389
    1526:	4621      	mov	r1, r4
    1528:	4630      	mov	r0, r6
/home/ldx1/dev/tee-fusion-repo/build/optee_os_ep-prefix/src/optee_os_ep/lib/libutee/tee_api_objects.c:385
    152a:	46e9      	mov	r9, sp
/home/ldx1/dev/tee-fusion-repo/build/optee_os_ep-prefix/src/optee_os_ep/lib/libutee/tee_api_objects.c:389
    152c:	f003 fbc8 	bl	4cc0 <__utee_check_attr_in_annotation>
/home/ldx1/dev/tee-fusion-repo/build/optee_os_ep-prefix/src/optee_os_ep/lib/libutee/tee_api_objects.c:391
    1530:	4639      	mov	r1, r7
    1532:	4628      	mov	r0, r5
    1534:	f004 e866 	blx	5604 <_utee_cryp_obj_get_info>
/home/ldx1/dev/tee-fusion-repo/build/optee_os_ep-prefix/src/optee_os_ep/lib/libutee/tee_api_objects.c:392
    1538:	b108      	cbz	r0, 153e <TEE_PopulateTransientObject+0x4a>
/home/ldx1/dev/tee-fusion-repo/build/optee_os_ep-prefix/src/optee_os_ep/lib/libutee/tee_api_objects.c:393
    153a:	f003 fb89 	bl	4c50 <TEE_Panic>
/home/ldx1/dev/tee-fusion-repo/build/optee_os_ep-prefix/src/optee_os_ep/lib/libutee/tee_api_objects.c:396
    153e:	69bb      	ldr	r3, [r7, #24]
    1540:	03da      	lsls	r2, r3, #15
    1542:	d502      	bpl.n	154a <TEE_PopulateTransientObject+0x56>
/home/ldx1/dev/tee-fusion-repo/build/optee_os_ep-prefix/src/optee_os_ep/lib/libutee/tee_api_objects.c:397
    1544:	2000      	movs	r0, #0
    1546:	f003 fb83 	bl	4c50 <TEE_Panic>
/home/ldx1/dev/tee-fusion-repo/build/optee_os_ep-prefix/src/optee_os_ep/lib/libutee/tee_api_objects.c:400
    154a:	69bb      	ldr	r3, [r7, #24]
    154c:	039b      	lsls	r3, r3, #14
    154e:	d502      	bpl.n	1556 <TEE_PopulateTransientObject+0x62>
/home/ldx1/dev/tee-fusion-repo/build/optee_os_ep-prefix/src/optee_os_ep/lib/libutee/tee_api_objects.c:401
    1550:	2000      	movs	r0, #0
    1552:	f003 fb7d 	bl	4c50 <TEE_Panic>
/home/ldx1/dev/tee-fusion-repo/build/optee_os_ep-prefix/src/optee_os_ep/lib/libutee/tee_api_objects.c:403
    1556:	4622      	mov	r2, r4
    1558:	4631      	mov	r1, r6
    155a:	4648      	mov	r0, r9
    155c:	f7ff fc7c 	bl	e58 <__utee_from_attr>
/home/ldx1/dev/tee-fusion-repo/build/optee_os_ep-prefix/src/optee_os_ep/lib/libutee/tee_api_objects.c:404
    1560:	4622      	mov	r2, r4
    1562:	4649      	mov	r1, r9
    1564:	4628      	mov	r0, r5
    1566:	f004 e88a 	blx	567c <_utee_cryp_obj_populate>
/home/ldx1/dev/tee-fusion-repo/build/optee_os_ep-prefix/src/optee_os_ep/lib/libutee/tee_api_objects.c:405
    156a:	4604      	mov	r4, r0
    156c:	b120      	cbz	r0, 1578 <TEE_PopulateTransientObject+0x84>
/home/ldx1/dev/tee-fusion-repo/build/optee_os_ep-prefix/src/optee_os_ep/lib/libutee/tee_api_objects.c:405 (discriminator 1)
    156e:	4b0b      	ldr	r3, [pc, #44]	@ (159c <TEE_PopulateTransientObject+0xa8>)
    1570:	4298      	cmp	r0, r3
    1572:	d001      	beq.n	1578 <TEE_PopulateTransientObject+0x84>
/home/ldx1/dev/tee-fusion-repo/build/optee_os_ep-prefix/src/optee_os_ep/lib/libutee/tee_api_objects.c:406
    1574:	f003 fb6c 	bl	4c50 <TEE_Panic>
/home/ldx1/dev/tee-fusion-repo/build/optee_os_ep-prefix/src/optee_os_ep/lib/libutee/tee_api_objects.c:384
    1578:	4a0b      	ldr	r2, [pc, #44]	@ (15a8 <TEE_PopulateTransientObject+0xb4>)
/home/ldx1/dev/tee-fusion-repo/build/optee_os_ep-prefix/src/optee_os_ep/lib/libutee/tee_api_objects.c:408
    157a:	4b0a      	ldr	r3, [pc, #40]	@ (15a4 <TEE_PopulateTransientObject+0xb0>)
/home/ldx1/dev/tee-fusion-repo/build/optee_os_ep-prefix/src/optee_os_ep/lib/libutee/tee_api_objects.c:384
    157c:	447a      	add	r2, pc
/home/ldx1/dev/tee-fusion-repo/build/optee_os_ep-prefix/src/optee_os_ep/lib/libutee/tee_api_objects.c:408
    157e:	58d3      	ldr	r3, [r2, r3]
    1580:	681a      	ldr	r2, [r3, #0]
    1582:	69fb      	ldr	r3, [r7, #28]
    1584:	405a      	eors	r2, r3
    1586:	f04f 0300 	mov.w	r3, #0
    158a:	d001      	beq.n	1590 <TEE_PopulateTransientObject+0x9c>
    158c:	f7fe fea0 	bl	2d0 <__stack_chk_fail>
    1590:	4620      	mov	r0, r4
    1592:	3724      	adds	r7, #36	@ 0x24
    1594:	46bd      	mov	sp, r7
    1596:	e8bd 83f0 	ldmia.w	sp!, {r4, r5, r6, r7, r8, r9, pc}
    159a:	bf00      	nop
    159c:	ffff0006 	.word	0xffff0006
    15a0:	0000db84 	.word	0x0000db84
    15a4:	0000000c 	.word	0x0000000c
    15a8:	0000db08 	.word	0x0000db08

000015ac <__GP11_TEE_PopulateTransientObject>:
__GP11_TEE_PopulateTransientObject():
/home/ldx1/dev/tee-fusion-repo/build/optee_os_ep-prefix/src/optee_os_ep/lib/libutee/tee_api_objects.c:413
    15ac:	e92d 43f0 	stmdb	sp!, {r4, r5, r6, r7, r8, r9, lr}
    15b0:	4614      	mov	r4, r2
    15b2:	4a29      	ldr	r2, [pc, #164]	@ (1658 <__GP11_TEE_PopulateTransientObject+0xac>)
    15b4:	4b29      	ldr	r3, [pc, #164]	@ (165c <__GP11_TEE_PopulateTransientObject+0xb0>)
    15b6:	b089      	sub	sp, #36	@ 0x24
    15b8:	447a      	add	r2, pc
    15ba:	af00      	add	r7, sp, #0
    15bc:	4605      	mov	r5, r0
    15be:	460e      	mov	r6, r1
/home/ldx1/dev/tee-fusion-repo/build/optee_os_ep-prefix/src/optee_os_ep/lib/libutee/tee_api_objects.c:415
    15c0:	4638      	mov	r0, r7
/home/ldx1/dev/tee-fusion-repo/build/optee_os_ep-prefix/src/optee_os_ep/lib/libutee/tee_api_objects.c:413
    15c2:	58d3      	ldr	r3, [r2, r3]
/home/ldx1/dev/tee-fusion-repo/build/optee_os_ep-prefix/src/optee_os_ep/lib/libutee/tee_api_objects.c:414
    15c4:	466a      	mov	r2, sp
/home/ldx1/dev/tee-fusion-repo/build/optee_os_ep-prefix/src/optee_os_ep/lib/libutee/tee_api_objects.c:415
    15c6:	2100      	movs	r1, #0
/home/ldx1/dev/tee-fusion-repo/build/optee_os_ep-prefix/src/optee_os_ep/lib/libutee/tee_api_objects.c:413
    15c8:	681b      	ldr	r3, [r3, #0]
    15ca:	61fb      	str	r3, [r7, #28]
    15cc:	f04f 0300 	mov.w	r3, #0
/home/ldx1/dev/tee-fusion-repo/build/optee_os_ep-prefix/src/optee_os_ep/lib/libutee/tee_api_objects.c:414
    15d0:	2318      	movs	r3, #24
    15d2:	fb03 2314 	mls	r3, r3, r4, r2
/home/ldx1/dev/tee-fusion-repo/build/optee_os_ep-prefix/src/optee_os_ep/lib/libutee/tee_api_objects.c:415
    15d6:	221c      	movs	r2, #28
/home/ldx1/dev/tee-fusion-repo/build/optee_os_ep-prefix/src/optee_os_ep/lib/libutee/tee_api_objects.c:414
    15d8:	469d      	mov	sp, r3
/home/ldx1/dev/tee-fusion-repo/build/optee_os_ep-prefix/src/optee_os_ep/lib/libutee/tee_api_objects.c:415
    15da:	f00b f82c 	bl	c636 <memset>
/home/ldx1/dev/tee-fusion-repo/build/optee_os_ep-prefix/src/optee_os_ep/lib/libutee/tee_api_objects.c:418
    15de:	4621      	mov	r1, r4
    15e0:	4630      	mov	r0, r6
/home/ldx1/dev/tee-fusion-repo/build/optee_os_ep-prefix/src/optee_os_ep/lib/libutee/tee_api_objects.c:414
    15e2:	46e9      	mov	r9, sp
/home/ldx1/dev/tee-fusion-repo/build/optee_os_ep-prefix/src/optee_os_ep/lib/libutee/tee_api_objects.c:418
    15e4:	f003 fb78 	bl	4cd8 <__utee_check_gp11_attr_in_annotation>
/home/ldx1/dev/tee-fusion-repo/build/optee_os_ep-prefix/src/optee_os_ep/lib/libutee/tee_api_objects.c:420
    15e8:	4639      	mov	r1, r7
    15ea:	4628      	mov	r0, r5
    15ec:	f004 e80a 	blx	5604 <_utee_cryp_obj_get_info>
/home/ldx1/dev/tee-fusion-repo/build/optee_os_ep-prefix/src/optee_os_ep/lib/libutee/tee_api_objects.c:421
    15f0:	b108      	cbz	r0, 15f6 <__GP11_TEE_PopulateTransientObject+0x4a>
/home/ldx1/dev/tee-fusion-repo/build/optee_os_ep-prefix/src/optee_os_ep/lib/libutee/tee_api_objects.c:422
    15f2:	f003 fb2d 	bl	4c50 <TEE_Panic>
/home/ldx1/dev/tee-fusion-repo/build/optee_os_ep-prefix/src/optee_os_ep/lib/libutee/tee_api_objects.c:425
    15f6:	69bb      	ldr	r3, [r7, #24]
    15f8:	03da      	lsls	r2, r3, #15
    15fa:	d502      	bpl.n	1602 <__GP11_TEE_PopulateTransientObject+0x56>
/home/ldx1/dev/tee-fusion-repo/build/optee_os_ep-prefix/src/optee_os_ep/lib/libutee/tee_api_objects.c:426
    15fc:	2000      	movs	r0, #0
    15fe:	f003 fb27 	bl	4c50 <TEE_Panic>
/home/ldx1/dev/tee-fusion-repo/build/optee_os_ep-prefix/src/optee_os_ep/lib/libutee/tee_api_objects.c:429
    1602:	69bb      	ldr	r3, [r7, #24]
    1604:	039b      	lsls	r3, r3, #14
    1606:	d502      	bpl.n	160e <__GP11_TEE_PopulateTransientObject+0x62>
/home/ldx1/dev/tee-fusion-repo/build/optee_os_ep-prefix/src/optee_os_ep/lib/libutee/tee_api_objects.c:430
    1608:	2000      	movs	r0, #0
    160a:	f003 fb21 	bl	4c50 <TEE_Panic>
/home/ldx1/dev/tee-fusion-repo/build/optee_os_ep-prefix/src/optee_os_ep/lib/libutee/tee_api_objects.c:432
    160e:	4622      	mov	r2, r4
    1610:	4631      	mov	r1, r6
    1612:	4648      	mov	r0, r9
    1614:	f7ff fc35 	bl	e82 <__utee_from_gp11_attr>
/home/ldx1/dev/tee-fusion-repo/build/optee_os_ep-prefix/src/optee_os_ep/lib/libutee/tee_api_objects.c:433
    1618:	4622      	mov	r2, r4
    161a:	4649      	mov	r1, r9
    161c:	4628      	mov	r0, r5
    161e:	f004 e82e 	blx	567c <_utee_cryp_obj_populate>
/home/ldx1/dev/tee-fusion-repo/build/optee_os_ep-prefix/src/optee_os_ep/lib/libutee/tee_api_objects.c:434
    1622:	4604      	mov	r4, r0
    1624:	b120      	cbz	r0, 1630 <__GP11_TEE_PopulateTransientObject+0x84>
/home/ldx1/dev/tee-fusion-repo/build/optee_os_ep-prefix/src/optee_os_ep/lib/libutee/tee_api_objects.c:434 (discriminator 1)
    1626:	4b0b      	ldr	r3, [pc, #44]	@ (1654 <__GP11_TEE_PopulateTransientObject+0xa8>)
    1628:	4298      	cmp	r0, r3
    162a:	d001      	beq.n	1630 <__GP11_TEE_PopulateTransientObject+0x84>
/home/ldx1/dev/tee-fusion-repo/build/optee_os_ep-prefix/src/optee_os_ep/lib/libutee/tee_api_objects.c:435
    162c:	f003 fb10 	bl	4c50 <TEE_Panic>
/home/ldx1/dev/tee-fusion-repo/build/optee_os_ep-prefix/src/optee_os_ep/lib/libutee/tee_api_objects.c:413
    1630:	4a0b      	ldr	r2, [pc, #44]	@ (1660 <__GP11_TEE_PopulateTransientObject+0xb4>)
/home/ldx1/dev/tee-fusion-repo/build/optee_os_ep-prefix/src/optee_os_ep/lib/libutee/tee_api_objects.c:437
    1632:	4b0a      	ldr	r3, [pc, #40]	@ (165c <__GP11_TEE_PopulateTransientObject+0xb0>)
/home/ldx1/dev/tee-fusion-repo/build/optee_os_ep-prefix/src/optee_os_ep/lib/libutee/tee_api_objects.c:413
    1634:	447a      	add	r2, pc
/home/ldx1/dev/tee-fusion-repo/build/optee_os_ep-prefix/src/optee_os_ep/lib/libutee/tee_api_objects.c:437
    1636:	58d3      	ldr	r3, [r2, r3]
    1638:	681a      	ldr	r2, [r3, #0]
    163a:	69fb      	ldr	r3, [r7, #28]
    163c:	405a      	eors	r2, r3
    163e:	f04f 0300 	mov.w	r3, #0
    1642:	d001      	beq.n	1648 <__GP11_TEE_PopulateTransientObject+0x9c>
    1644:	f7fe fe44 	bl	2d0 <__stack_chk_fail>
    1648:	4620      	mov	r0, r4
    164a:	3724      	adds	r7, #36	@ 0x24
    164c:	46bd      	mov	sp, r7
    164e:	e8bd 83f0 	ldmia.w	sp!, {r4, r5, r6, r7, r8, r9, pc}
    1652:	bf00      	nop
    1654:	ffff0006 	.word	0xffff0006
    1658:	0000dacc 	.word	0x0000dacc
    165c:	0000000c 	.word	0x0000000c
    1660:	0000da50 	.word	0x0000da50

00001664 <TEE_InitRefAttribute>:
TEE_InitRefAttribute():
/home/ldx1/dev/tee-fusion-repo/build/optee_os_ep-prefix/src/optee_os_ep/lib/libutee/tee_api_objects.c:441
    1664:	b5f8      	push	{r3, r4, r5, r6, r7, lr}
    1666:	460d      	mov	r5, r1
/home/ldx1/dev/tee-fusion-repo/build/optee_os_ep-prefix/src/optee_os_ep/lib/libutee/tee_api_objects.c:442
    1668:	210c      	movs	r1, #12
/home/ldx1/dev/tee-fusion-repo/build/optee_os_ep-prefix/src/optee_os_ep/lib/libutee/tee_api_objects.c:441
    166a:	461e      	mov	r6, r3
    166c:	4604      	mov	r4, r0
    166e:	4617      	mov	r7, r2
/home/ldx1/dev/tee-fusion-repo/build/optee_os_ep-prefix/src/optee_os_ep/lib/libutee/tee_api_objects.c:442
    1670:	f003 fb1b 	bl	4caa <__utee_check_out_annotation>
/home/ldx1/dev/tee-fusion-repo/build/optee_os_ep-prefix/src/optee_os_ep/lib/libutee/tee_api_objects.c:444
    1674:	00ab      	lsls	r3, r5, #2
    1676:	d502      	bpl.n	167e <TEE_InitRefAttribute+0x1a>
/home/ldx1/dev/tee-fusion-repo/build/optee_os_ep-prefix/src/optee_os_ep/lib/libutee/tee_api_objects.c:445
    1678:	2000      	movs	r0, #0
    167a:	f003 fae9 	bl	4c50 <TEE_Panic>
/home/ldx1/dev/tee-fusion-repo/build/optee_os_ep-prefix/src/optee_os_ep/lib/libutee/tee_api_objects.c:447
    167e:	e9c4 5700 	strd	r5, r7, [r4]
/home/ldx1/dev/tee-fusion-repo/build/optee_os_ep-prefix/src/optee_os_ep/lib/libutee/tee_api_objects.c:448
    1682:	60a6      	str	r6, [r4, #8]
/home/ldx1/dev/tee-fusion-repo/build/optee_os_ep-prefix/src/optee_os_ep/lib/libutee/tee_api_objects.c:449
    1684:	bdf8      	pop	{r3, r4, r5, r6, r7, pc}

00001686 <__GP11_TEE_InitRefAttribute>:
__GP11_TEE_InitRefAttribute():
/home/ldx1/dev/tee-fusion-repo/build/optee_os_ep-prefix/src/optee_os_ep/lib/libutee/tee_api_objects.c:454
    1686:	b5f8      	push	{r3, r4, r5, r6, r7, lr}
    1688:	460d      	mov	r5, r1
/home/ldx1/dev/tee-fusion-repo/build/optee_os_ep-prefix/src/optee_os_ep/lib/libutee/tee_api_objects.c:455
    168a:	210c      	movs	r1, #12
/home/ldx1/dev/tee-fusion-repo/build/optee_os_ep-prefix/src/optee_os_ep/lib/libutee/tee_api_objects.c:454
    168c:	461e      	mov	r6, r3
    168e:	4604      	mov	r4, r0
    1690:	4617      	mov	r7, r2
/home/ldx1/dev/tee-fusion-repo/build/optee_os_ep-prefix/src/optee_os_ep/lib/libutee/tee_api_objects.c:455
    1692:	f003 fb0a 	bl	4caa <__utee_check_out_annotation>
/home/ldx1/dev/tee-fusion-repo/build/optee_os_ep-prefix/src/optee_os_ep/lib/libutee/tee_api_objects.c:457
    1696:	00ab      	lsls	r3, r5, #2
    1698:	d502      	bpl.n	16a0 <__GP11_TEE_InitRefAttribute+0x1a>
/home/ldx1/dev/tee-fusion-repo/build/optee_os_ep-prefix/src/optee_os_ep/lib/libutee/tee_api_objects.c:458
    169a:	2000      	movs	r0, #0
    169c:	f003 fad8 	bl	4c50 <TEE_Panic>
/home/ldx1/dev/tee-fusion-repo/build/optee_os_ep-prefix/src/optee_os_ep/lib/libutee/tee_api_objects.c:460
    16a0:	e9c4 5700 	strd	r5, r7, [r4]
/home/ldx1/dev/tee-fusion-repo/build/optee_os_ep-prefix/src/optee_os_ep/lib/libutee/tee_api_objects.c:461
    16a4:	60a6      	str	r6, [r4, #8]
/home/ldx1/dev/tee-fusion-repo/build/optee_os_ep-prefix/src/optee_os_ep/lib/libutee/tee_api_objects.c:462
    16a6:	bdf8      	pop	{r3, r4, r5, r6, r7, pc}

000016a8 <TEE_InitValueAttribute>:
TEE_InitValueAttribute():
/home/ldx1/dev/tee-fusion-repo/build/optee_os_ep-prefix/src/optee_os_ep/lib/libutee/tee_api_objects.c:466
    16a8:	b5f8      	push	{r3, r4, r5, r6, r7, lr}
    16aa:	460d      	mov	r5, r1
/home/ldx1/dev/tee-fusion-repo/build/optee_os_ep-prefix/src/optee_os_ep/lib/libutee/tee_api_objects.c:467
    16ac:	210c      	movs	r1, #12
/home/ldx1/dev/tee-fusion-repo/build/optee_os_ep-prefix/src/optee_os_ep/lib/libutee/tee_api_objects.c:466
    16ae:	4604      	mov	r4, r0
    16b0:	4617      	mov	r7, r2
    16b2:	461e      	mov	r6, r3
/home/ldx1/dev/tee-fusion-repo/build/optee_os_ep-prefix/src/optee_os_ep/lib/libutee/tee_api_objects.c:467
    16b4:	f003 faf9 	bl	4caa <__utee_check_out_annotation>
/home/ldx1/dev/tee-fusion-repo/build/optee_os_ep-prefix/src/optee_os_ep/lib/libutee/tee_api_objects.c:469
    16b8:	f015 5000 	ands.w	r0, r5, #536870912	@ 0x20000000
    16bc:	d101      	bne.n	16c2 <TEE_InitValueAttribute+0x1a>
/home/ldx1/dev/tee-fusion-repo/build/optee_os_ep-prefix/src/optee_os_ep/lib/libutee/tee_api_objects.c:470
    16be:	f003 fac7 	bl	4c50 <TEE_Panic>
/home/ldx1/dev/tee-fusion-repo/build/optee_os_ep-prefix/src/optee_os_ep/lib/libutee/tee_api_objects.c:472
    16c2:	e9c4 5700 	strd	r5, r7, [r4]
/home/ldx1/dev/tee-fusion-repo/build/optee_os_ep-prefix/src/optee_os_ep/lib/libutee/tee_api_objects.c:473
    16c6:	60a6      	str	r6, [r4, #8]
/home/ldx1/dev/tee-fusion-repo/build/optee_os_ep-prefix/src/optee_os_ep/lib/libutee/tee_api_objects.c:474
    16c8:	bdf8      	pop	{r3, r4, r5, r6, r7, pc}

000016ca <__GP11_TEE_InitValueAttribute>:
__GP11_TEE_InitValueAttribute():
/home/ldx1/dev/tee-fusion-repo/build/optee_os_ep-prefix/src/optee_os_ep/lib/libutee/tee_api_objects.c:479
    16ca:	b5f8      	push	{r3, r4, r5, r6, r7, lr}
    16cc:	460d      	mov	r5, r1
/home/ldx1/dev/tee-fusion-repo/build/optee_os_ep-prefix/src/optee_os_ep/lib/libutee/tee_api_objects.c:480
    16ce:	210c      	movs	r1, #12
/home/ldx1/dev/tee-fusion-repo/build/optee_os_ep-prefix/src/optee_os_ep/lib/libutee/tee_api_objects.c:479
    16d0:	4604      	mov	r4, r0
    16d2:	4617      	mov	r7, r2
    16d4:	461e      	mov	r6, r3
/home/ldx1/dev/tee-fusion-repo/build/optee_os_ep-prefix/src/optee_os_ep/lib/libutee/tee_api_objects.c:480
    16d6:	f003 fae8 	bl	4caa <__utee_check_out_annotation>
/home/ldx1/dev/tee-fusion-repo/build/optee_os_ep-prefix/src/optee_os_ep/lib/libutee/tee_api_objects.c:482
    16da:	f015 5000 	ands.w	r0, r5, #536870912	@ 0x20000000
    16de:	d101      	bne.n	16e4 <__GP11_TEE_InitValueAttribute+0x1a>
/home/ldx1/dev/tee-fusion-repo/build/optee_os_ep-prefix/src/optee_os_ep/lib/libutee/tee_api_objects.c:483
    16e0:	f003 fab6 	bl	4c50 <TEE_Panic>
/home/ldx1/dev/tee-fusion-repo/build/optee_os_ep-prefix/src/optee_os_ep/lib/libutee/tee_api_objects.c:485
    16e4:	e9c4 5700 	strd	r5, r7, [r4]
/home/ldx1/dev/tee-fusion-repo/build/optee_os_ep-prefix/src/optee_os_ep/lib/libutee/tee_api_objects.c:486
    16e8:	60a6      	str	r6, [r4, #8]
/home/ldx1/dev/tee-fusion-repo/build/optee_os_ep-prefix/src/optee_os_ep/lib/libutee/tee_api_objects.c:487
    16ea:	bdf8      	pop	{r3, r4, r5, r6, r7, pc}

000016ec <TEE_CopyObjectAttributes1>:
TEE_CopyObjectAttributes1():
/home/ldx1/dev/tee-fusion-repo/build/optee_os_ep-prefix/src/optee_os_ep/lib/libutee/tee_api_objects.c:512
    16ec:	4a2a      	ldr	r2, [pc, #168]	@ (1798 <TEE_CopyObjectAttributes1+0xac>)
    16ee:	4b2b      	ldr	r3, [pc, #172]	@ (179c <TEE_CopyObjectAttributes1+0xb0>)
    16f0:	b5f0      	push	{r4, r5, r6, r7, lr}
    16f2:	447a      	add	r2, pc
    16f4:	4605      	mov	r5, r0
    16f6:	b091      	sub	sp, #68	@ 0x44
    16f8:	460e      	mov	r6, r1
    16fa:	58d3      	ldr	r3, [r2, r3]
/home/ldx1/dev/tee-fusion-repo/build/optee_os_ep-prefix/src/optee_os_ep/lib/libutee/tee_api_objects.c:513
    16fc:	ac01      	add	r4, sp, #4
    16fe:	221c      	movs	r2, #28
    1700:	2100      	movs	r1, #0
    1702:	4620      	mov	r0, r4
/home/ldx1/dev/tee-fusion-repo/build/optee_os_ep-prefix/src/optee_os_ep/lib/libutee/tee_api_objects.c:514
    1704:	af08      	add	r7, sp, #32
/home/ldx1/dev/tee-fusion-repo/build/optee_os_ep-prefix/src/optee_os_ep/lib/libutee/tee_api_objects.c:512
    1706:	681b      	ldr	r3, [r3, #0]
    1708:	930f      	str	r3, [sp, #60]	@ 0x3c
    170a:	f04f 0300 	mov.w	r3, #0
/home/ldx1/dev/tee-fusion-repo/build/optee_os_ep-prefix/src/optee_os_ep/lib/libutee/tee_api_objects.c:513
    170e:	f00a ff92 	bl	c636 <memset>
/home/ldx1/dev/tee-fusion-repo/build/optee_os_ep-prefix/src/optee_os_ep/lib/libutee/tee_api_objects.c:514
    1712:	221c      	movs	r2, #28
    1714:	2100      	movs	r1, #0
    1716:	4638      	mov	r0, r7
    1718:	f00a ff8d 	bl	c636 <memset>
/home/ldx1/dev/tee-fusion-repo/build/optee_os_ep-prefix/src/optee_os_ep/lib/libutee/tee_api_objects.c:517
    171c:	4621      	mov	r1, r4
    171e:	4628      	mov	r0, r5
    1720:	f003 ef70 	blx	5604 <_utee_cryp_obj_get_info>
/home/ldx1/dev/tee-fusion-repo/build/optee_os_ep-prefix/src/optee_os_ep/lib/libutee/tee_api_objects.c:518
    1724:	4604      	mov	r4, r0
    1726:	b9e0      	cbnz	r0, 1762 <TEE_CopyObjectAttributes1+0x76>
/home/ldx1/dev/tee-fusion-repo/build/optee_os_ep-prefix/src/optee_os_ep/lib/libutee/tee_api_objects.c:521
    1728:	4639      	mov	r1, r7
    172a:	4630      	mov	r0, r6
    172c:	f003 ef6a 	blx	5604 <_utee_cryp_obj_get_info>
/home/ldx1/dev/tee-fusion-repo/build/optee_os_ep-prefix/src/optee_os_ep/lib/libutee/tee_api_objects.c:522
    1730:	4604      	mov	r4, r0
    1732:	b9b0      	cbnz	r0, 1762 <TEE_CopyObjectAttributes1+0x76>
/home/ldx1/dev/tee-fusion-repo/build/optee_os_ep-prefix/src/optee_os_ep/lib/libutee/tee_api_objects.c:525
    1734:	9b0e      	ldr	r3, [sp, #56]	@ 0x38
    1736:	0399      	lsls	r1, r3, #14
    1738:	d401      	bmi.n	173e <TEE_CopyObjectAttributes1+0x52>
/home/ldx1/dev/tee-fusion-repo/build/optee_os_ep-prefix/src/optee_os_ep/lib/libutee/tee_api_objects.c:526
    173a:	f003 fa89 	bl	4c50 <TEE_Panic>
/home/ldx1/dev/tee-fusion-repo/build/optee_os_ep-prefix/src/optee_os_ep/lib/libutee/tee_api_objects.c:528
    173e:	9b07      	ldr	r3, [sp, #28]
    1740:	03da      	lsls	r2, r3, #15
    1742:	d502      	bpl.n	174a <TEE_CopyObjectAttributes1+0x5e>
/home/ldx1/dev/tee-fusion-repo/build/optee_os_ep-prefix/src/optee_os_ep/lib/libutee/tee_api_objects.c:529
    1744:	2000      	movs	r0, #0
    1746:	f003 fa83 	bl	4c50 <TEE_Panic>
/home/ldx1/dev/tee-fusion-repo/build/optee_os_ep-prefix/src/optee_os_ep/lib/libutee/tee_api_objects.c:531
    174a:	9b07      	ldr	r3, [sp, #28]
    174c:	039b      	lsls	r3, r3, #14
    174e:	d502      	bpl.n	1756 <TEE_CopyObjectAttributes1+0x6a>
/home/ldx1/dev/tee-fusion-repo/build/optee_os_ep-prefix/src/optee_os_ep/lib/libutee/tee_api_objects.c:532
    1750:	2000      	movs	r0, #0
    1752:	f003 fa7d 	bl	4c50 <TEE_Panic>
/home/ldx1/dev/tee-fusion-repo/build/optee_os_ep-prefix/src/optee_os_ep/lib/libutee/tee_api_objects.c:534
    1756:	4631      	mov	r1, r6
    1758:	4628      	mov	r0, r5
    175a:	f003 ef9a 	blx	5690 <_utee_cryp_obj_copy>
/home/ldx1/dev/tee-fusion-repo/build/optee_os_ep-prefix/src/optee_os_ep/lib/libutee/tee_api_objects.c:538
    175e:	4604      	mov	r4, r0
    1760:	b140      	cbz	r0, 1774 <TEE_CopyObjectAttributes1+0x88>
/home/ldx1/dev/tee-fusion-repo/build/optee_os_ep-prefix/src/optee_os_ep/lib/libutee/tee_api_objects.c:538 (discriminator 1)
    1762:	4b0c      	ldr	r3, [pc, #48]	@ (1794 <TEE_CopyObjectAttributes1+0xa8>)
    1764:	429c      	cmp	r4, r3
    1766:	d005      	beq.n	1774 <TEE_CopyObjectAttributes1+0x88>
/home/ldx1/dev/tee-fusion-repo/build/optee_os_ep-prefix/src/optee_os_ep/lib/libutee/tee_api_objects.c:539
    1768:	3302      	adds	r3, #2
    176a:	429c      	cmp	r4, r3
    176c:	d002      	beq.n	1774 <TEE_CopyObjectAttributes1+0x88>
/home/ldx1/dev/tee-fusion-repo/build/optee_os_ep-prefix/src/optee_os_ep/lib/libutee/tee_api_objects.c:541
    176e:	4620      	mov	r0, r4
    1770:	f003 fa6e 	bl	4c50 <TEE_Panic>
/home/ldx1/dev/tee-fusion-repo/build/optee_os_ep-prefix/src/optee_os_ep/lib/libutee/tee_api_objects.c:512
    1774:	4a0a      	ldr	r2, [pc, #40]	@ (17a0 <TEE_CopyObjectAttributes1+0xb4>)
/home/ldx1/dev/tee-fusion-repo/build/optee_os_ep-prefix/src/optee_os_ep/lib/libutee/tee_api_objects.c:544
    1776:	4b09      	ldr	r3, [pc, #36]	@ (179c <TEE_CopyObjectAttributes1+0xb0>)
/home/ldx1/dev/tee-fusion-repo/build/optee_os_ep-prefix/src/optee_os_ep/lib/libutee/tee_api_objects.c:512
    1778:	447a      	add	r2, pc
/home/ldx1/dev/tee-fusion-repo/build/optee_os_ep-prefix/src/optee_os_ep/lib/libutee/tee_api_objects.c:544
    177a:	58d3      	ldr	r3, [r2, r3]
    177c:	681a      	ldr	r2, [r3, #0]
    177e:	9b0f      	ldr	r3, [sp, #60]	@ 0x3c
    1780:	405a      	eors	r2, r3
    1782:	f04f 0300 	mov.w	r3, #0
    1786:	d001      	beq.n	178c <TEE_CopyObjectAttributes1+0xa0>
    1788:	f7fe fda2 	bl	2d0 <__stack_chk_fail>
    178c:	4620      	mov	r0, r4
    178e:	b011      	add	sp, #68	@ 0x44
    1790:	bdf0      	pop	{r4, r5, r6, r7, pc}
    1792:	bf00      	nop
    1794:	f0100001 	.word	0xf0100001
    1798:	0000d992 	.word	0x0000d992
    179c:	0000000c 	.word	0x0000000c
    17a0:	0000d90c 	.word	0x0000d90c

000017a4 <TEE_CopyObjectAttributes>:
TEE_CopyObjectAttributes():
/home/ldx1/dev/tee-fusion-repo/build/optee_os_ep-prefix/src/optee_os_ep/lib/libutee/tee_api_objects.c:497
    17a4:	4a18      	ldr	r2, [pc, #96]	@ (1808 <TEE_CopyObjectAttributes+0x64>)
    17a6:	4b19      	ldr	r3, [pc, #100]	@ (180c <TEE_CopyObjectAttributes+0x68>)
    17a8:	447a      	add	r2, pc
    17aa:	b530      	push	{r4, r5, lr}
    17ac:	460c      	mov	r4, r1
    17ae:	b089      	sub	sp, #36	@ 0x24
/home/ldx1/dev/tee-fusion-repo/build/optee_os_ep-prefix/src/optee_os_ep/lib/libutee/tee_api_objects.c:498
    17b0:	2100      	movs	r1, #0
/home/ldx1/dev/tee-fusion-repo/build/optee_os_ep-prefix/src/optee_os_ep/lib/libutee/tee_api_objects.c:497
    17b2:	58d3      	ldr	r3, [r2, r3]
    17b4:	4605      	mov	r5, r0
/home/ldx1/dev/tee-fusion-repo/build/optee_os_ep-prefix/src/optee_os_ep/lib/libutee/tee_api_objects.c:498
    17b6:	221c      	movs	r2, #28
/home/ldx1/dev/tee-fusion-repo/build/optee_os_ep-prefix/src/optee_os_ep/lib/libutee/tee_api_objects.c:497
    17b8:	681b      	ldr	r3, [r3, #0]
    17ba:	9307      	str	r3, [sp, #28]
    17bc:	f04f 0300 	mov.w	r3, #0
/home/ldx1/dev/tee-fusion-repo/build/optee_os_ep-prefix/src/optee_os_ep/lib/libutee/tee_api_objects.c:498
    17c0:	466b      	mov	r3, sp
    17c2:	4618      	mov	r0, r3
    17c4:	f00a ff37 	bl	c636 <memset>
/home/ldx1/dev/tee-fusion-repo/build/optee_os_ep-prefix/src/optee_os_ep/lib/libutee/tee_api_objects.c:501
    17c8:	4601      	mov	r1, r0
    17ca:	4620      	mov	r0, r4
    17cc:	f003 ef1a 	blx	5604 <_utee_cryp_obj_get_info>
/home/ldx1/dev/tee-fusion-repo/build/optee_os_ep-prefix/src/optee_os_ep/lib/libutee/tee_api_objects.c:502
    17d0:	4b0c      	ldr	r3, [pc, #48]	@ (1804 <TEE_CopyObjectAttributes+0x60>)
    17d2:	9a00      	ldr	r2, [sp, #0]
    17d4:	429a      	cmp	r2, r3
    17d6:	d006      	beq.n	17e6 <TEE_CopyObjectAttributes+0x42>
/home/ldx1/dev/tee-fusion-repo/build/optee_os_ep-prefix/src/optee_os_ep/lib/libutee/tee_api_objects.c:505
    17d8:	4621      	mov	r1, r4
    17da:	4628      	mov	r0, r5
    17dc:	f7ff ff86 	bl	16ec <TEE_CopyObjectAttributes1>
/home/ldx1/dev/tee-fusion-repo/build/optee_os_ep-prefix/src/optee_os_ep/lib/libutee/tee_api_objects.c:506
    17e0:	b108      	cbz	r0, 17e6 <TEE_CopyObjectAttributes+0x42>
/home/ldx1/dev/tee-fusion-repo/build/optee_os_ep-prefix/src/optee_os_ep/lib/libutee/tee_api_objects.c:507
    17e2:	f003 fa35 	bl	4c50 <TEE_Panic>
/home/ldx1/dev/tee-fusion-repo/build/optee_os_ep-prefix/src/optee_os_ep/lib/libutee/tee_api_objects.c:497
    17e6:	4a0a      	ldr	r2, [pc, #40]	@ (1810 <TEE_CopyObjectAttributes+0x6c>)
/home/ldx1/dev/tee-fusion-repo/build/optee_os_ep-prefix/src/optee_os_ep/lib/libutee/tee_api_objects.c:508
    17e8:	4b08      	ldr	r3, [pc, #32]	@ (180c <TEE_CopyObjectAttributes+0x68>)
/home/ldx1/dev/tee-fusion-repo/build/optee_os_ep-prefix/src/optee_os_ep/lib/libutee/tee_api_objects.c:497
    17ea:	447a      	add	r2, pc
/home/ldx1/dev/tee-fusion-repo/build/optee_os_ep-prefix/src/optee_os_ep/lib/libutee/tee_api_objects.c:508
    17ec:	58d3      	ldr	r3, [r2, r3]
    17ee:	681a      	ldr	r2, [r3, #0]
    17f0:	9b07      	ldr	r3, [sp, #28]
    17f2:	405a      	eors	r2, r3
    17f4:	f04f 0300 	mov.w	r3, #0
    17f8:	d001      	beq.n	17fe <TEE_CopyObjectAttributes+0x5a>
    17fa:	f7fe fd69 	bl	2d0 <__stack_chk_fail>
    17fe:	b009      	add	sp, #36	@ 0x24
    1800:	bd30      	pop	{r4, r5, pc}
    1802:	bf00      	nop
    1804:	a00000be 	.word	0xa00000be
    1808:	0000d8dc 	.word	0x0000d8dc
    180c:	0000000c 	.word	0x0000000c
    1810:	0000d89a 	.word	0x0000d89a

00001814 <TEE_GenerateKey>:
TEE_GenerateKey():
/home/ldx1/dev/tee-fusion-repo/build/optee_os_ep-prefix/src/optee_os_ep/lib/libutee/tee_api_objects.c:548
    1814:	e92d 43f0 	stmdb	sp!, {r4, r5, r6, r7, r8, r9, lr}
    1818:	4615      	mov	r5, r2
    181a:	4a1e      	ldr	r2, [pc, #120]	@ (1894 <TEE_GenerateKey+0x80>)
    181c:	461c      	mov	r4, r3
    181e:	4b1e      	ldr	r3, [pc, #120]	@ (1898 <TEE_GenerateKey+0x84>)
    1820:	447a      	add	r2, pc
    1822:	b083      	sub	sp, #12
    1824:	af00      	add	r7, sp, #0
    1826:	4606      	mov	r6, r0
    1828:	4688      	mov	r8, r1
    182a:	58d3      	ldr	r3, [r2, r3]
/home/ldx1/dev/tee-fusion-repo/build/optee_os_ep-prefix/src/optee_os_ep/lib/libutee/tee_api_objects.c:550
    182c:	466a      	mov	r2, sp
